
BEEP.elf:     file format elf32-littlearm


Disassembly of section .text:

40008000 <_start>:
40008000:	ea00000d 	b	4000803c <reset>
40008004:	e59ff014 	ldr	pc, [pc, #20]	; 40008020 <_undefined_instruction>
40008008:	e59ff014 	ldr	pc, [pc, #20]	; 40008024 <_software_interrupt>
4000800c:	e59ff014 	ldr	pc, [pc, #20]	; 40008028 <_prefetch_abort>
40008010:	e59ff014 	ldr	pc, [pc, #20]	; 4000802c <_data_abort>
40008014:	e59ff014 	ldr	pc, [pc, #20]	; 40008030 <_not_used>
40008018:	e59ff014 	ldr	pc, [pc, #20]	; 40008034 <_irq>
4000801c:	e59ff014 	ldr	pc, [pc, #20]	; 40008038 <_fiq>

40008020 <_undefined_instruction>:
40008020:	40008020 	andmi	r8, r0, r0, lsr #32

40008024 <_software_interrupt>:
40008024:	400080f0 	strdmi	r8, [r0], -r0

40008028 <_prefetch_abort>:
40008028:	40008028 	andmi	r8, r0, r8, lsr #32

4000802c <_data_abort>:
4000802c:	4000802c 	andmi	r8, r0, ip, lsr #32

40008030 <_not_used>:
40008030:	40008030 	andmi	r8, r0, r0, lsr r0

40008034 <_irq>:
40008034:	400080e0 	andmi	r8, r0, r0, ror #1

40008038 <_fiq>:
40008038:	40008038 	andmi	r8, r0, r8, lsr r0

4000803c <reset>:
4000803c:	e59f00bc 	ldr	r0, [pc, #188]	; 40008100 <stacktop+0x4>
40008040:	ee0c0f10 	mcr	15, 0, r0, cr12, cr0, {0}
40008044:	e10f0000 	mrs	r0, CPSR
40008048:	e3c0001f 	bic	r0, r0, #31
4000804c:	e38000d3 	orr	r0, r0, #211	; 0xd3
40008050:	e129f000 	msr	CPSR_fc, r0
40008054:	e3e0020f 	mvn	r0, #-268435456	; 0xf0000000
40008058:	ee010f50 	mcr	15, 0, r0, cr1, cr0, {2}
4000805c:	e3a00000 	mov	r0, #0
40008060:	ee080f17 	mcr	15, 0, r0, cr8, cr7, {0}
40008064:	ee070f15 	mcr	15, 0, r0, cr7, cr5, {0}
40008068:	e3a03101 	mov	r3, #1073741824	; 0x40000000
4000806c:	eee83a10 	vmsr	fpexc, r3
40008070:	ee110f10 	mrc	15, 0, r0, cr1, cr0, {0}
40008074:	e3c00a02 	bic	r0, r0, #8192	; 0x2000
40008078:	e3c00007 	bic	r0, r0, #7
4000807c:	e3800a01 	orr	r0, r0, #4096	; 0x1000
40008080:	e3800002 	orr	r0, r0, #2
40008084:	e3800b02 	orr	r0, r0, #2048	; 0x800
40008088:	ee010f10 	mcr	15, 0, r0, cr1, cr0, {0}

4000808c <init_stack>:
4000808c:	e59f0068 	ldr	r0, [pc, #104]	; 400080fc <stacktop>
40008090:	e1a0d000 	mov	sp, r0
40008094:	e2400c02 	sub	r0, r0, #512	; 0x200
40008098:	e329f0d2 	msr	CPSR_fc, #210	; 0xd2
4000809c:	e1a0d000 	mov	sp, r0
400080a0:	e2400c02 	sub	r0, r0, #512	; 0x200
400080a4:	e329f0d1 	msr	CPSR_fc, #209	; 0xd1
400080a8:	e1a0d000 	mov	sp, r0
400080ac:	e2400000 	sub	r0, r0, #0
400080b0:	e329f0d7 	msr	CPSR_fc, #215	; 0xd7
400080b4:	e1a0d000 	mov	sp, r0
400080b8:	e2400000 	sub	r0, r0, #0
400080bc:	e329f0db 	msr	CPSR_fc, #219	; 0xdb
400080c0:	e1a0d000 	mov	sp, r0
400080c4:	e2400000 	sub	r0, r0, #0
400080c8:	e329f010 	msr	CPSR_fc, #16
400080cc:	e1a0d000 	mov	sp, r0
400080d0:	eb000672 	bl	40009aa0 <main>

400080d4 <_stop>:
400080d4:	eafffffe 	b	400080d4 <_stop>
400080d8:	e1a00000 	nop			; (mov r0, r0)
400080dc:	e1a00000 	nop			; (mov r0, r0)

400080e0 <irq_handler>:
400080e0:	e24ee004 	sub	lr, lr, #4
400080e4:	e92d5fff 	push	{r0, r1, r2, r3, r4, r5, r6, r7, r8, r9, sl, fp, ip, lr}
400080e8:	eb0005ee 	bl	400098a8 <do_irq>
400080ec:	e8fd9fff 	ldm	sp!, {r0, r1, r2, r3, r4, r5, r6, r7, r8, r9, sl, fp, ip, pc}^

400080f0 <software_interrupt>:
400080f0:	e92d5fff 	push	{r0, r1, r2, r3, r4, r5, r6, r7, r8, r9, sl, fp, ip, lr}
400080f4:	e1a00000 	nop			; (mov r0, r0)
400080f8:	e8fd9fff 	ldm	sp!, {r0, r1, r2, r3, r4, r5, r6, r7, r8, r9, sl, fp, ip, pc}^

400080fc <stacktop>:
400080fc:	4000a634 	andmi	sl, r0, r4, lsr r6
40008100:	40008000 	andmi	r8, r0, r0
40008104:	e1a00000 	nop			; (mov r0, r0)
40008108:	e1a00000 	nop			; (mov r0, r0)
4000810c:	e1a00000 	nop			; (mov r0, r0)

40008110 <__udivsi3>:
40008110:	e3510000 	cmp	r1, #0
40008114:	0a00001f 	beq	40008198 <Ldiv0>
40008118:	e3a03001 	mov	r3, #1
4000811c:	e3a02000 	mov	r2, #0
40008120:	e1500001 	cmp	r0, r1
40008124:	3a000019 	bcc	40008190 <Lgot_result>

40008128 <Loop1>:
40008128:	e3510201 	cmp	r1, #268435456	; 0x10000000
4000812c:	31510000 	cmpcc	r1, r0
40008130:	31a01201 	lslcc	r1, r1, #4
40008134:	31a03203 	lslcc	r3, r3, #4
40008138:	3afffffa 	bcc	40008128 <Loop1>

4000813c <Lbignum>:
4000813c:	e3510102 	cmp	r1, #-2147483648	; 0x80000000
40008140:	31510000 	cmpcc	r1, r0
40008144:	31a01081 	lslcc	r1, r1, #1
40008148:	31a03083 	lslcc	r3, r3, #1
4000814c:	3afffffa 	bcc	4000813c <Lbignum>

40008150 <Loop3>:
40008150:	e1500001 	cmp	r0, r1
40008154:	20400001 	subcs	r0, r0, r1
40008158:	21822003 	orrcs	r2, r2, r3
4000815c:	e15000a1 	cmp	r0, r1, lsr #1
40008160:	204000a1 	subcs	r0, r0, r1, lsr #1
40008164:	218220a3 	orrcs	r2, r2, r3, lsr #1
40008168:	e1500121 	cmp	r0, r1, lsr #2
4000816c:	20400121 	subcs	r0, r0, r1, lsr #2
40008170:	21822123 	orrcs	r2, r2, r3, lsr #2
40008174:	e15001a1 	cmp	r0, r1, lsr #3
40008178:	204001a1 	subcs	r0, r0, r1, lsr #3
4000817c:	218221a3 	orrcs	r2, r2, r3, lsr #3
40008180:	e3500000 	cmp	r0, #0
40008184:	11b03223 	lsrsne	r3, r3, #4
40008188:	11a01221 	lsrne	r1, r1, #4
4000818c:	1affffef 	bne	40008150 <Loop3>

40008190 <Lgot_result>:
40008190:	e1a00002 	mov	r0, r2
40008194:	e1a0f00e 	mov	pc, lr

40008198 <Ldiv0>:
40008198:	e52de004 	push	{lr}		; (str lr, [sp, #-4]!)
4000819c:	e3a00000 	mov	r0, #0
400081a0:	e8bd8000 	pop	{pc}

400081a4 <__umodsi3>:
400081a4:	e3510000 	cmp	r1, #0
400081a8:	0a000026 	beq	40008248 <Ldiv0>
400081ac:	e3a03001 	mov	r3, #1
400081b0:	e1500001 	cmp	r0, r1
400081b4:	31a0f00e 	movcc	pc, lr

400081b8 <Loop1>:
400081b8:	e3510201 	cmp	r1, #268435456	; 0x10000000
400081bc:	31510000 	cmpcc	r1, r0
400081c0:	31a01201 	lslcc	r1, r1, #4
400081c4:	31a03203 	lslcc	r3, r3, #4
400081c8:	3afffffa 	bcc	400081b8 <Loop1>

400081cc <Lbignum>:
400081cc:	e3510102 	cmp	r1, #-2147483648	; 0x80000000
400081d0:	31510000 	cmpcc	r1, r0
400081d4:	31a01081 	lslcc	r1, r1, #1
400081d8:	31a03083 	lslcc	r3, r3, #1
400081dc:	3afffffa 	bcc	400081cc <Lbignum>

400081e0 <Loop3>:
400081e0:	e3a02000 	mov	r2, #0
400081e4:	e1500001 	cmp	r0, r1
400081e8:	20400001 	subcs	r0, r0, r1
400081ec:	e15000a1 	cmp	r0, r1, lsr #1
400081f0:	204000a1 	subcs	r0, r0, r1, lsr #1
400081f4:	218220e3 	orrcs	r2, r2, r3, ror #1
400081f8:	e1500121 	cmp	r0, r1, lsr #2
400081fc:	20400121 	subcs	r0, r0, r1, lsr #2
40008200:	21822163 	orrcs	r2, r2, r3, ror #2
40008204:	e15001a1 	cmp	r0, r1, lsr #3
40008208:	204001a1 	subcs	r0, r0, r1, lsr #3
4000820c:	218221e3 	orrcs	r2, r2, r3, ror #3
40008210:	e1a0c003 	mov	ip, r3
40008214:	e3500000 	cmp	r0, #0
40008218:	11b03223 	lsrsne	r3, r3, #4
4000821c:	11a01221 	lsrne	r1, r1, #4
40008220:	1affffee 	bne	400081e0 <Loop3>
40008224:	e212220e 	ands	r2, r2, #-536870912	; 0xe0000000
40008228:	01a0f00e 	moveq	pc, lr
4000822c:	e11201ec 	tst	r2, ip, ror #3
40008230:	108001a1 	addne	r0, r0, r1, lsr #3
40008234:	e112016c 	tst	r2, ip, ror #2
40008238:	10800121 	addne	r0, r0, r1, lsr #2
4000823c:	e11200ec 	tst	r2, ip, ror #1
40008240:	108000a1 	addne	r0, r0, r1, lsr #1
40008244:	e1a0f00e 	mov	pc, lr

40008248 <Ldiv0>:
40008248:	e52de004 	push	{lr}		; (str lr, [sp, #-4]!)
4000824c:	e3a00000 	mov	r0, #0
40008250:	e8bd8000 	pop	{pc}

40008254 <__toupper>:
40008254:	e52db004 	push	{fp}		; (str fp, [sp, #-4]!)
40008258:	e28db000 	add	fp, sp, #0
4000825c:	e24dd004 	sub	sp, sp, #4
40008260:	e1a03000 	mov	r3, r0
40008264:	e54b3004 	strb	r3, [fp, #-4]
40008268:	e55b3004 	ldrb	r3, [fp, #-4]
4000826c:	e59f202c 	ldr	r2, [pc, #44]	; 400082a0 <__toupper+0x4c>
40008270:	e7d23003 	ldrb	r3, [r2, r3]
40008274:	e2033002 	and	r3, r3, #2
40008278:	e3530000 	cmp	r3, #0
4000827c:	0a000002 	beq	4000828c <__toupper+0x38>
40008280:	e55b3004 	ldrb	r3, [fp, #-4]
40008284:	e2433020 	sub	r3, r3, #32
40008288:	e54b3004 	strb	r3, [fp, #-4]
4000828c:	e55b3004 	ldrb	r3, [fp, #-4]
40008290:	e1a00003 	mov	r0, r3
40008294:	e28bd000 	add	sp, fp, #0
40008298:	e8bd0800 	pop	{fp}
4000829c:	e12fff1e 	bx	lr
400082a0:	4000a634 	andmi	sl, r0, r4, lsr r6

400082a4 <simple_strtoul>:
400082a4:	e92d4800 	push	{fp, lr}
400082a8:	e28db004 	add	fp, sp, #4
400082ac:	e24dd014 	sub	sp, sp, #20
400082b0:	e50b0010 	str	r0, [fp, #-16]
400082b4:	e50b1014 	str	r1, [fp, #-20]
400082b8:	e50b2018 	str	r2, [fp, #-24]
400082bc:	e3a03000 	mov	r3, #0
400082c0:	e50b3008 	str	r3, [fp, #-8]
400082c4:	e51b3010 	ldr	r3, [fp, #-16]
400082c8:	e5d33000 	ldrb	r3, [r3]
400082cc:	e3530030 	cmp	r3, #48	; 0x30
400082d0:	1a000018 	bne	40008338 <simple_strtoul+0x94>
400082d4:	e51b3010 	ldr	r3, [fp, #-16]
400082d8:	e2833001 	add	r3, r3, #1
400082dc:	e50b3010 	str	r3, [fp, #-16]
400082e0:	e51b3010 	ldr	r3, [fp, #-16]
400082e4:	e5d33000 	ldrb	r3, [r3]
400082e8:	e3530078 	cmp	r3, #120	; 0x78
400082ec:	1a00000c 	bne	40008324 <simple_strtoul+0x80>
400082f0:	e51b3010 	ldr	r3, [fp, #-16]
400082f4:	e2833001 	add	r3, r3, #1
400082f8:	e5d33000 	ldrb	r3, [r3]
400082fc:	e59f2144 	ldr	r2, [pc, #324]	; 40008448 <simple_strtoul+0x1a4>
40008300:	e7d23003 	ldrb	r3, [r2, r3]
40008304:	e2033044 	and	r3, r3, #68	; 0x44
40008308:	e3530000 	cmp	r3, #0
4000830c:	0a000004 	beq	40008324 <simple_strtoul+0x80>
40008310:	e3a03010 	mov	r3, #16
40008314:	e50b3018 	str	r3, [fp, #-24]
40008318:	e51b3010 	ldr	r3, [fp, #-16]
4000831c:	e2833001 	add	r3, r3, #1
40008320:	e50b3010 	str	r3, [fp, #-16]
40008324:	e51b3018 	ldr	r3, [fp, #-24]
40008328:	e3530000 	cmp	r3, #0
4000832c:	1a000001 	bne	40008338 <simple_strtoul+0x94>
40008330:	e3a03008 	mov	r3, #8
40008334:	e50b3018 	str	r3, [fp, #-24]
40008338:	e51b3018 	ldr	r3, [fp, #-24]
4000833c:	e3530000 	cmp	r3, #0
40008340:	1a00000c 	bne	40008378 <simple_strtoul+0xd4>
40008344:	e3a0300a 	mov	r3, #10
40008348:	e50b3018 	str	r3, [fp, #-24]
4000834c:	ea000009 	b	40008378 <simple_strtoul+0xd4>
40008350:	e51b3008 	ldr	r3, [fp, #-8]
40008354:	e51b2018 	ldr	r2, [fp, #-24]
40008358:	e0020293 	mul	r2, r3, r2
4000835c:	e51b300c 	ldr	r3, [fp, #-12]
40008360:	e0823003 	add	r3, r2, r3
40008364:	e50b3008 	str	r3, [fp, #-8]
40008368:	e51b3010 	ldr	r3, [fp, #-16]
4000836c:	e2833001 	add	r3, r3, #1
40008370:	e50b3010 	str	r3, [fp, #-16]
40008374:	ea000000 	b	4000837c <simple_strtoul+0xd8>
40008378:	e1a00000 	nop			; (mov r0, r0)
4000837c:	e51b3010 	ldr	r3, [fp, #-16]
40008380:	e5d33000 	ldrb	r3, [r3]
40008384:	e59f20bc 	ldr	r2, [pc, #188]	; 40008448 <simple_strtoul+0x1a4>
40008388:	e7d23003 	ldrb	r3, [r2, r3]
4000838c:	e2033044 	and	r3, r3, #68	; 0x44
40008390:	e3530000 	cmp	r3, #0
40008394:	0a000020 	beq	4000841c <simple_strtoul+0x178>
40008398:	e51b3010 	ldr	r3, [fp, #-16]
4000839c:	e5d33000 	ldrb	r3, [r3]
400083a0:	e59f20a0 	ldr	r2, [pc, #160]	; 40008448 <simple_strtoul+0x1a4>
400083a4:	e7d23003 	ldrb	r3, [r2, r3]
400083a8:	e2033004 	and	r3, r3, #4
400083ac:	e3530000 	cmp	r3, #0
400083b0:	0a000003 	beq	400083c4 <simple_strtoul+0x120>
400083b4:	e51b3010 	ldr	r3, [fp, #-16]
400083b8:	e5d33000 	ldrb	r3, [r3]
400083bc:	e2433030 	sub	r3, r3, #48	; 0x30
400083c0:	ea000010 	b	40008408 <simple_strtoul+0x164>
400083c4:	e51b3010 	ldr	r3, [fp, #-16]
400083c8:	e5d33000 	ldrb	r3, [r3]
400083cc:	e59f2074 	ldr	r2, [pc, #116]	; 40008448 <simple_strtoul+0x1a4>
400083d0:	e7d23003 	ldrb	r3, [r2, r3]
400083d4:	e2033002 	and	r3, r3, #2
400083d8:	e3530000 	cmp	r3, #0
400083dc:	0a000006 	beq	400083fc <simple_strtoul+0x158>
400083e0:	e51b3010 	ldr	r3, [fp, #-16]
400083e4:	e5d33000 	ldrb	r3, [r3]
400083e8:	e1a00003 	mov	r0, r3
400083ec:	ebffff98 	bl	40008254 <__toupper>
400083f0:	e1a03000 	mov	r3, r0
400083f4:	e2433037 	sub	r3, r3, #55	; 0x37
400083f8:	ea000002 	b	40008408 <simple_strtoul+0x164>
400083fc:	e51b3010 	ldr	r3, [fp, #-16]
40008400:	e5d33000 	ldrb	r3, [r3]
40008404:	e2433037 	sub	r3, r3, #55	; 0x37
40008408:	e50b300c 	str	r3, [fp, #-12]
4000840c:	e51b200c 	ldr	r2, [fp, #-12]
40008410:	e51b3018 	ldr	r3, [fp, #-24]
40008414:	e1520003 	cmp	r2, r3
40008418:	3affffcc 	bcc	40008350 <simple_strtoul+0xac>
4000841c:	e51b3014 	ldr	r3, [fp, #-20]
40008420:	e3530000 	cmp	r3, #0
40008424:	0a000002 	beq	40008434 <simple_strtoul+0x190>
40008428:	e51b3014 	ldr	r3, [fp, #-20]
4000842c:	e51b2010 	ldr	r2, [fp, #-16]
40008430:	e5832000 	str	r2, [r3]
40008434:	e51b3008 	ldr	r3, [fp, #-8]
40008438:	e1a00003 	mov	r0, r3
4000843c:	e24bd004 	sub	sp, fp, #4
40008440:	e8bd4800 	pop	{fp, lr}
40008444:	e12fff1e 	bx	lr
40008448:	4000a634 	andmi	sl, r0, r4, lsr r6

4000844c <simple_strtol>:
4000844c:	e92d4800 	push	{fp, lr}
40008450:	e28db004 	add	fp, sp, #4
40008454:	e24dd00c 	sub	sp, sp, #12
40008458:	e50b0008 	str	r0, [fp, #-8]
4000845c:	e50b100c 	str	r1, [fp, #-12]
40008460:	e50b2010 	str	r2, [fp, #-16]
40008464:	e51b3008 	ldr	r3, [fp, #-8]
40008468:	e5d33000 	ldrb	r3, [r3]
4000846c:	e353002d 	cmp	r3, #45	; 0x2d
40008470:	1a000008 	bne	40008498 <simple_strtol+0x4c>
40008474:	e51b3008 	ldr	r3, [fp, #-8]
40008478:	e2833001 	add	r3, r3, #1
4000847c:	e1a00003 	mov	r0, r3
40008480:	e51b100c 	ldr	r1, [fp, #-12]
40008484:	e51b2010 	ldr	r2, [fp, #-16]
40008488:	ebffff85 	bl	400082a4 <simple_strtoul>
4000848c:	e1a03000 	mov	r3, r0
40008490:	e2633000 	rsb	r3, r3, #0
40008494:	ea000004 	b	400084ac <simple_strtol+0x60>
40008498:	e51b0008 	ldr	r0, [fp, #-8]
4000849c:	e51b100c 	ldr	r1, [fp, #-12]
400084a0:	e51b2010 	ldr	r2, [fp, #-16]
400084a4:	ebffff7e 	bl	400082a4 <simple_strtoul>
400084a8:	e1a03000 	mov	r3, r0
400084ac:	e1a00003 	mov	r0, r3
400084b0:	e24bd004 	sub	sp, fp, #4
400084b4:	e8bd4800 	pop	{fp, lr}
400084b8:	e12fff1e 	bx	lr

400084bc <skip_atoi>:
400084bc:	e52db004 	push	{fp}		; (str fp, [sp, #-4]!)
400084c0:	e28db000 	add	fp, sp, #0
400084c4:	e24dd008 	sub	sp, sp, #8
400084c8:	e50b0008 	str	r0, [fp, #-8]
400084cc:	e3a03000 	mov	r3, #0
400084d0:	e50b3004 	str	r3, [fp, #-4]
400084d4:	ea00000e 	b	40008514 <skip_atoi+0x58>
400084d8:	e51b2004 	ldr	r2, [fp, #-4]
400084dc:	e1a03002 	mov	r3, r2
400084e0:	e1a03103 	lsl	r3, r3, #2
400084e4:	e0833002 	add	r3, r3, r2
400084e8:	e1a03083 	lsl	r3, r3, #1
400084ec:	e1a01003 	mov	r1, r3
400084f0:	e51b3008 	ldr	r3, [fp, #-8]
400084f4:	e5933000 	ldr	r3, [r3]
400084f8:	e5d32000 	ldrb	r2, [r3]
400084fc:	e0812002 	add	r2, r1, r2
40008500:	e2422030 	sub	r2, r2, #48	; 0x30
40008504:	e50b2004 	str	r2, [fp, #-4]
40008508:	e2832001 	add	r2, r3, #1
4000850c:	e51b3008 	ldr	r3, [fp, #-8]
40008510:	e5832000 	str	r2, [r3]
40008514:	e51b3008 	ldr	r3, [fp, #-8]
40008518:	e5933000 	ldr	r3, [r3]
4000851c:	e5d33000 	ldrb	r3, [r3]
40008520:	e353002f 	cmp	r3, #47	; 0x2f
40008524:	9a000004 	bls	4000853c <skip_atoi+0x80>
40008528:	e51b3008 	ldr	r3, [fp, #-8]
4000852c:	e5933000 	ldr	r3, [r3]
40008530:	e5d33000 	ldrb	r3, [r3]
40008534:	e3530039 	cmp	r3, #57	; 0x39
40008538:	9affffe6 	bls	400084d8 <skip_atoi+0x1c>
4000853c:	e51b3004 	ldr	r3, [fp, #-4]
40008540:	e1a00003 	mov	r0, r3
40008544:	e28bd000 	add	sp, fp, #0
40008548:	e8bd0800 	pop	{fp}
4000854c:	e12fff1e 	bx	lr

40008550 <number>:
40008550:	e92d4800 	push	{fp, lr}
40008554:	e28db004 	add	fp, sp, #4
40008558:	e24dd068 	sub	sp, sp, #104	; 0x68
4000855c:	e50b0060 	str	r0, [fp, #-96]	; 0x60
40008560:	e50b1064 	str	r1, [fp, #-100]	; 0x64
40008564:	e50b2068 	str	r2, [fp, #-104]	; 0x68
40008568:	e50b306c 	str	r3, [fp, #-108]	; 0x6c
4000856c:	e59f346c 	ldr	r3, [pc, #1132]	; 400089e0 <number+0x490>
40008570:	e50b300c 	str	r3, [fp, #-12]
40008574:	e59b3008 	ldr	r3, [fp, #8]
40008578:	e2033040 	and	r3, r3, #64	; 0x40
4000857c:	e3530000 	cmp	r3, #0
40008580:	0a000001 	beq	4000858c <number+0x3c>
40008584:	e59f3458 	ldr	r3, [pc, #1112]	; 400089e4 <number+0x494>
40008588:	e50b300c 	str	r3, [fp, #-12]
4000858c:	e59b3008 	ldr	r3, [fp, #8]
40008590:	e2033010 	and	r3, r3, #16
40008594:	e3530000 	cmp	r3, #0
40008598:	0a000002 	beq	400085a8 <number+0x58>
4000859c:	e59b3008 	ldr	r3, [fp, #8]
400085a0:	e3c33001 	bic	r3, r3, #1
400085a4:	e58b3008 	str	r3, [fp, #8]
400085a8:	e51b3068 	ldr	r3, [fp, #-104]	; 0x68
400085ac:	e3530001 	cmp	r3, #1
400085b0:	9a000002 	bls	400085c0 <number+0x70>
400085b4:	e51b3068 	ldr	r3, [fp, #-104]	; 0x68
400085b8:	e3530024 	cmp	r3, #36	; 0x24
400085bc:	9a000001 	bls	400085c8 <number+0x78>
400085c0:	e3a03000 	mov	r3, #0
400085c4:	ea000101 	b	400089d0 <number+0x480>
400085c8:	e59b3008 	ldr	r3, [fp, #8]
400085cc:	e2033001 	and	r3, r3, #1
400085d0:	e20330ff 	and	r3, r3, #255	; 0xff
400085d4:	e3530000 	cmp	r3, #0
400085d8:	0a000001 	beq	400085e4 <number+0x94>
400085dc:	e3a03030 	mov	r3, #48	; 0x30
400085e0:	ea000000 	b	400085e8 <number+0x98>
400085e4:	e3a03020 	mov	r3, #32
400085e8:	e54b3011 	strb	r3, [fp, #-17]
400085ec:	e3a03000 	mov	r3, #0
400085f0:	e54b3005 	strb	r3, [fp, #-5]
400085f4:	e59b3008 	ldr	r3, [fp, #8]
400085f8:	e2033002 	and	r3, r3, #2
400085fc:	e3530000 	cmp	r3, #0
40008600:	0a00001e 	beq	40008680 <number+0x130>
40008604:	e51b3064 	ldr	r3, [fp, #-100]	; 0x64
40008608:	e3530000 	cmp	r3, #0
4000860c:	aa000008 	bge	40008634 <number+0xe4>
40008610:	e3a0302d 	mov	r3, #45	; 0x2d
40008614:	e54b3005 	strb	r3, [fp, #-5]
40008618:	e51b3064 	ldr	r3, [fp, #-100]	; 0x64
4000861c:	e2633000 	rsb	r3, r3, #0
40008620:	e50b3064 	str	r3, [fp, #-100]	; 0x64
40008624:	e51b306c 	ldr	r3, [fp, #-108]	; 0x6c
40008628:	e2433001 	sub	r3, r3, #1
4000862c:	e50b306c 	str	r3, [fp, #-108]	; 0x6c
40008630:	ea000012 	b	40008680 <number+0x130>
40008634:	e59b3008 	ldr	r3, [fp, #8]
40008638:	e2033004 	and	r3, r3, #4
4000863c:	e3530000 	cmp	r3, #0
40008640:	0a000005 	beq	4000865c <number+0x10c>
40008644:	e3a0302b 	mov	r3, #43	; 0x2b
40008648:	e54b3005 	strb	r3, [fp, #-5]
4000864c:	e51b306c 	ldr	r3, [fp, #-108]	; 0x6c
40008650:	e2433001 	sub	r3, r3, #1
40008654:	e50b306c 	str	r3, [fp, #-108]	; 0x6c
40008658:	ea000008 	b	40008680 <number+0x130>
4000865c:	e59b3008 	ldr	r3, [fp, #8]
40008660:	e2033008 	and	r3, r3, #8
40008664:	e3530000 	cmp	r3, #0
40008668:	0a000004 	beq	40008680 <number+0x130>
4000866c:	e3a03020 	mov	r3, #32
40008670:	e54b3005 	strb	r3, [fp, #-5]
40008674:	e51b306c 	ldr	r3, [fp, #-108]	; 0x6c
40008678:	e2433001 	sub	r3, r3, #1
4000867c:	e50b306c 	str	r3, [fp, #-108]	; 0x6c
40008680:	e59b3008 	ldr	r3, [fp, #8]
40008684:	e2033020 	and	r3, r3, #32
40008688:	e3530000 	cmp	r3, #0
4000868c:	0a00000c 	beq	400086c4 <number+0x174>
40008690:	e51b3068 	ldr	r3, [fp, #-104]	; 0x68
40008694:	e3530010 	cmp	r3, #16
40008698:	1a000003 	bne	400086ac <number+0x15c>
4000869c:	e51b306c 	ldr	r3, [fp, #-108]	; 0x6c
400086a0:	e2433002 	sub	r3, r3, #2
400086a4:	e50b306c 	str	r3, [fp, #-108]	; 0x6c
400086a8:	ea000005 	b	400086c4 <number+0x174>
400086ac:	e51b3068 	ldr	r3, [fp, #-104]	; 0x68
400086b0:	e3530008 	cmp	r3, #8
400086b4:	1a000002 	bne	400086c4 <number+0x174>
400086b8:	e51b306c 	ldr	r3, [fp, #-108]	; 0x6c
400086bc:	e2433001 	sub	r3, r3, #1
400086c0:	e50b306c 	str	r3, [fp, #-108]	; 0x6c
400086c4:	e3a03000 	mov	r3, #0
400086c8:	e50b3010 	str	r3, [fp, #-16]
400086cc:	e51b3064 	ldr	r3, [fp, #-100]	; 0x64
400086d0:	e3530000 	cmp	r3, #0
400086d4:	1a000027 	bne	40008778 <number+0x228>
400086d8:	e3e03057 	mvn	r3, #87	; 0x57
400086dc:	e51b2010 	ldr	r2, [fp, #-16]
400086e0:	e24b0004 	sub	r0, fp, #4
400086e4:	e0802002 	add	r2, r0, r2
400086e8:	e0823003 	add	r3, r2, r3
400086ec:	e3a02030 	mov	r2, #48	; 0x30
400086f0:	e5c32000 	strb	r2, [r3]
400086f4:	e51b3010 	ldr	r3, [fp, #-16]
400086f8:	e2833001 	add	r3, r3, #1
400086fc:	e50b3010 	str	r3, [fp, #-16]
40008700:	ea00001f 	b	40008784 <number+0x234>
40008704:	e51b2010 	ldr	r2, [fp, #-16]
40008708:	e59b3004 	ldr	r3, [fp, #4]
4000870c:	e1520003 	cmp	r2, r3
40008710:	da000018 	ble	40008778 <number+0x228>
40008714:	e51b3064 	ldr	r3, [fp, #-100]	; 0x64
40008718:	e1a00003 	mov	r0, r3
4000871c:	e51b1068 	ldr	r1, [fp, #-104]	; 0x68
40008720:	ebfffe9f 	bl	400081a4 <__umodsi3>
40008724:	e1a03000 	mov	r3, r0
40008728:	e50b3018 	str	r3, [fp, #-24]
4000872c:	e51b3064 	ldr	r3, [fp, #-100]	; 0x64
40008730:	e1a00003 	mov	r0, r3
40008734:	e51b1068 	ldr	r1, [fp, #-104]	; 0x68
40008738:	ebfffe74 	bl	40008110 <__udivsi3>
4000873c:	e1a03000 	mov	r3, r0
40008740:	e50b3064 	str	r3, [fp, #-100]	; 0x64
40008744:	e51b3018 	ldr	r3, [fp, #-24]
40008748:	e51b200c 	ldr	r2, [fp, #-12]
4000874c:	e0823003 	add	r3, r2, r3
40008750:	e5d32000 	ldrb	r2, [r3]
40008754:	e3e03057 	mvn	r3, #87	; 0x57
40008758:	e51b1010 	ldr	r1, [fp, #-16]
4000875c:	e24b0004 	sub	r0, fp, #4
40008760:	e0801001 	add	r1, r0, r1
40008764:	e0813003 	add	r3, r1, r3
40008768:	e5c32000 	strb	r2, [r3]
4000876c:	e51b3010 	ldr	r3, [fp, #-16]
40008770:	e2833001 	add	r3, r3, #1
40008774:	e50b3010 	str	r3, [fp, #-16]
40008778:	e51b3064 	ldr	r3, [fp, #-100]	; 0x64
4000877c:	e3530000 	cmp	r3, #0
40008780:	1affffdf 	bne	40008704 <number+0x1b4>
40008784:	e51b3010 	ldr	r3, [fp, #-16]
40008788:	e58b3004 	str	r3, [fp, #4]
4000878c:	e51b206c 	ldr	r2, [fp, #-108]	; 0x6c
40008790:	e59b3004 	ldr	r3, [fp, #4]
40008794:	e0633002 	rsb	r3, r3, r2
40008798:	e50b306c 	str	r3, [fp, #-108]	; 0x6c
4000879c:	e59b3008 	ldr	r3, [fp, #8]
400087a0:	e2033011 	and	r3, r3, #17
400087a4:	e3530000 	cmp	r3, #0
400087a8:	1a000010 	bne	400087f0 <number+0x2a0>
400087ac:	ea000005 	b	400087c8 <number+0x278>
400087b0:	e51b3060 	ldr	r3, [fp, #-96]	; 0x60
400087b4:	e3a02020 	mov	r2, #32
400087b8:	e5c32000 	strb	r2, [r3]
400087bc:	e51b3060 	ldr	r3, [fp, #-96]	; 0x60
400087c0:	e2833001 	add	r3, r3, #1
400087c4:	e50b3060 	str	r3, [fp, #-96]	; 0x60
400087c8:	e51b306c 	ldr	r3, [fp, #-108]	; 0x6c
400087cc:	e3530000 	cmp	r3, #0
400087d0:	d3a03000 	movle	r3, #0
400087d4:	c3a03001 	movgt	r3, #1
400087d8:	e20330ff 	and	r3, r3, #255	; 0xff
400087dc:	e51b206c 	ldr	r2, [fp, #-108]	; 0x6c
400087e0:	e2422001 	sub	r2, r2, #1
400087e4:	e50b206c 	str	r2, [fp, #-108]	; 0x6c
400087e8:	e3530000 	cmp	r3, #0
400087ec:	1affffef 	bne	400087b0 <number+0x260>
400087f0:	e55b3005 	ldrb	r3, [fp, #-5]
400087f4:	e3530000 	cmp	r3, #0
400087f8:	0a000005 	beq	40008814 <number+0x2c4>
400087fc:	e51b3060 	ldr	r3, [fp, #-96]	; 0x60
40008800:	e55b2005 	ldrb	r2, [fp, #-5]
40008804:	e5c32000 	strb	r2, [r3]
40008808:	e51b3060 	ldr	r3, [fp, #-96]	; 0x60
4000880c:	e2833001 	add	r3, r3, #1
40008810:	e50b3060 	str	r3, [fp, #-96]	; 0x60
40008814:	e59b3008 	ldr	r3, [fp, #8]
40008818:	e2033020 	and	r3, r3, #32
4000881c:	e3530000 	cmp	r3, #0
40008820:	0a000019 	beq	4000888c <number+0x33c>
40008824:	e51b3068 	ldr	r3, [fp, #-104]	; 0x68
40008828:	e3530008 	cmp	r3, #8
4000882c:	1a000006 	bne	4000884c <number+0x2fc>
40008830:	e51b3060 	ldr	r3, [fp, #-96]	; 0x60
40008834:	e3a02030 	mov	r2, #48	; 0x30
40008838:	e5c32000 	strb	r2, [r3]
4000883c:	e51b3060 	ldr	r3, [fp, #-96]	; 0x60
40008840:	e2833001 	add	r3, r3, #1
40008844:	e50b3060 	str	r3, [fp, #-96]	; 0x60
40008848:	ea00000f 	b	4000888c <number+0x33c>
4000884c:	e51b3068 	ldr	r3, [fp, #-104]	; 0x68
40008850:	e3530010 	cmp	r3, #16
40008854:	1a00000c 	bne	4000888c <number+0x33c>
40008858:	e51b3060 	ldr	r3, [fp, #-96]	; 0x60
4000885c:	e3a02030 	mov	r2, #48	; 0x30
40008860:	e5c32000 	strb	r2, [r3]
40008864:	e51b3060 	ldr	r3, [fp, #-96]	; 0x60
40008868:	e2833001 	add	r3, r3, #1
4000886c:	e50b3060 	str	r3, [fp, #-96]	; 0x60
40008870:	e51b300c 	ldr	r3, [fp, #-12]
40008874:	e5d32021 	ldrb	r2, [r3, #33]	; 0x21
40008878:	e51b3060 	ldr	r3, [fp, #-96]	; 0x60
4000887c:	e5c32000 	strb	r2, [r3]
40008880:	e51b3060 	ldr	r3, [fp, #-96]	; 0x60
40008884:	e2833001 	add	r3, r3, #1
40008888:	e50b3060 	str	r3, [fp, #-96]	; 0x60
4000888c:	e59b3008 	ldr	r3, [fp, #8]
40008890:	e2033010 	and	r3, r3, #16
40008894:	e3530000 	cmp	r3, #0
40008898:	1a000018 	bne	40008900 <number+0x3b0>
4000889c:	ea000005 	b	400088b8 <number+0x368>
400088a0:	e51b3060 	ldr	r3, [fp, #-96]	; 0x60
400088a4:	e55b2011 	ldrb	r2, [fp, #-17]
400088a8:	e5c32000 	strb	r2, [r3]
400088ac:	e51b3060 	ldr	r3, [fp, #-96]	; 0x60
400088b0:	e2833001 	add	r3, r3, #1
400088b4:	e50b3060 	str	r3, [fp, #-96]	; 0x60
400088b8:	e51b306c 	ldr	r3, [fp, #-108]	; 0x6c
400088bc:	e3530000 	cmp	r3, #0
400088c0:	d3a03000 	movle	r3, #0
400088c4:	c3a03001 	movgt	r3, #1
400088c8:	e20330ff 	and	r3, r3, #255	; 0xff
400088cc:	e51b206c 	ldr	r2, [fp, #-108]	; 0x6c
400088d0:	e2422001 	sub	r2, r2, #1
400088d4:	e50b206c 	str	r2, [fp, #-108]	; 0x6c
400088d8:	e3530000 	cmp	r3, #0
400088dc:	1affffef 	bne	400088a0 <number+0x350>
400088e0:	ea000006 	b	40008900 <number+0x3b0>
400088e4:	e51b3060 	ldr	r3, [fp, #-96]	; 0x60
400088e8:	e3a02030 	mov	r2, #48	; 0x30
400088ec:	e5c32000 	strb	r2, [r3]
400088f0:	e51b3060 	ldr	r3, [fp, #-96]	; 0x60
400088f4:	e2833001 	add	r3, r3, #1
400088f8:	e50b3060 	str	r3, [fp, #-96]	; 0x60
400088fc:	ea000000 	b	40008904 <number+0x3b4>
40008900:	e1a00000 	nop			; (mov r0, r0)
40008904:	e59b2004 	ldr	r2, [fp, #4]
40008908:	e51b3010 	ldr	r3, [fp, #-16]
4000890c:	e1520003 	cmp	r2, r3
40008910:	d3a03000 	movle	r3, #0
40008914:	c3a03001 	movgt	r3, #1
40008918:	e20330ff 	and	r3, r3, #255	; 0xff
4000891c:	e59b2004 	ldr	r2, [fp, #4]
40008920:	e2422001 	sub	r2, r2, #1
40008924:	e58b2004 	str	r2, [fp, #4]
40008928:	e3530000 	cmp	r3, #0
4000892c:	1affffec 	bne	400088e4 <number+0x394>
40008930:	ea00000a 	b	40008960 <number+0x410>
40008934:	e3e03057 	mvn	r3, #87	; 0x57
40008938:	e51b2010 	ldr	r2, [fp, #-16]
4000893c:	e24b1004 	sub	r1, fp, #4
40008940:	e0812002 	add	r2, r1, r2
40008944:	e0823003 	add	r3, r2, r3
40008948:	e5d32000 	ldrb	r2, [r3]
4000894c:	e51b3060 	ldr	r3, [fp, #-96]	; 0x60
40008950:	e5c32000 	strb	r2, [r3]
40008954:	e51b3060 	ldr	r3, [fp, #-96]	; 0x60
40008958:	e2833001 	add	r3, r3, #1
4000895c:	e50b3060 	str	r3, [fp, #-96]	; 0x60
40008960:	e51b3010 	ldr	r3, [fp, #-16]
40008964:	e3530000 	cmp	r3, #0
40008968:	d3a03000 	movle	r3, #0
4000896c:	c3a03001 	movgt	r3, #1
40008970:	e20330ff 	and	r3, r3, #255	; 0xff
40008974:	e51b2010 	ldr	r2, [fp, #-16]
40008978:	e2422001 	sub	r2, r2, #1
4000897c:	e50b2010 	str	r2, [fp, #-16]
40008980:	e3530000 	cmp	r3, #0
40008984:	1affffea 	bne	40008934 <number+0x3e4>
40008988:	ea000005 	b	400089a4 <number+0x454>
4000898c:	e51b3060 	ldr	r3, [fp, #-96]	; 0x60
40008990:	e3a02020 	mov	r2, #32
40008994:	e5c32000 	strb	r2, [r3]
40008998:	e51b3060 	ldr	r3, [fp, #-96]	; 0x60
4000899c:	e2833001 	add	r3, r3, #1
400089a0:	e50b3060 	str	r3, [fp, #-96]	; 0x60
400089a4:	e51b306c 	ldr	r3, [fp, #-108]	; 0x6c
400089a8:	e3530000 	cmp	r3, #0
400089ac:	d3a03000 	movle	r3, #0
400089b0:	c3a03001 	movgt	r3, #1
400089b4:	e20330ff 	and	r3, r3, #255	; 0xff
400089b8:	e51b206c 	ldr	r2, [fp, #-108]	; 0x6c
400089bc:	e2422001 	sub	r2, r2, #1
400089c0:	e50b206c 	str	r2, [fp, #-108]	; 0x6c
400089c4:	e3530000 	cmp	r3, #0
400089c8:	1affffef 	bne	4000898c <number+0x43c>
400089cc:	e51b3060 	ldr	r3, [fp, #-96]	; 0x60
400089d0:	e1a00003 	mov	r0, r3
400089d4:	e24bd004 	sub	sp, fp, #4
400089d8:	e8bd4800 	pop	{fp, lr}
400089dc:	e12fff1e 	bx	lr
400089e0:	40009d74 	andmi	r9, r0, r4, ror sp
400089e4:	40009d9c 	mulmi	r0, ip, sp

400089e8 <strnlen>:
400089e8:	e52db004 	push	{fp}		; (str fp, [sp, #-4]!)
400089ec:	e28db000 	add	fp, sp, #0
400089f0:	e24dd00c 	sub	sp, sp, #12
400089f4:	e50b0008 	str	r0, [fp, #-8]
400089f8:	e50b100c 	str	r1, [fp, #-12]
400089fc:	e51b3008 	ldr	r3, [fp, #-8]
40008a00:	e50b3004 	str	r3, [fp, #-4]
40008a04:	ea000002 	b	40008a14 <strnlen+0x2c>
40008a08:	e51b3004 	ldr	r3, [fp, #-4]
40008a0c:	e2833001 	add	r3, r3, #1
40008a10:	e50b3004 	str	r3, [fp, #-4]
40008a14:	e51b300c 	ldr	r3, [fp, #-12]
40008a18:	e3530000 	cmp	r3, #0
40008a1c:	03a03000 	moveq	r3, #0
40008a20:	13a03001 	movne	r3, #1
40008a24:	e20330ff 	and	r3, r3, #255	; 0xff
40008a28:	e51b200c 	ldr	r2, [fp, #-12]
40008a2c:	e2422001 	sub	r2, r2, #1
40008a30:	e50b200c 	str	r2, [fp, #-12]
40008a34:	e3530000 	cmp	r3, #0
40008a38:	0a000003 	beq	40008a4c <strnlen+0x64>
40008a3c:	e51b3004 	ldr	r3, [fp, #-4]
40008a40:	e5d33000 	ldrb	r3, [r3]
40008a44:	e3530000 	cmp	r3, #0
40008a48:	1affffee 	bne	40008a08 <strnlen+0x20>
40008a4c:	e51b2004 	ldr	r2, [fp, #-4]
40008a50:	e51b3008 	ldr	r3, [fp, #-8]
40008a54:	e0633002 	rsb	r3, r3, r2
40008a58:	e1a00003 	mov	r0, r3
40008a5c:	e28bd000 	add	sp, fp, #0
40008a60:	e8bd0800 	pop	{fp}
40008a64:	e12fff1e 	bx	lr

40008a68 <vsprintf>:
40008a68:	e92d4800 	push	{fp, lr}
40008a6c:	e28db004 	add	fp, sp, #4
40008a70:	e24dd044 	sub	sp, sp, #68	; 0x44
40008a74:	e50b0038 	str	r0, [fp, #-56]	; 0x38
40008a78:	e50b103c 	str	r1, [fp, #-60]	; 0x3c
40008a7c:	e50b2040 	str	r2, [fp, #-64]	; 0x40
40008a80:	e51b3038 	ldr	r3, [fp, #-56]	; 0x38
40008a84:	e50b3014 	str	r3, [fp, #-20]
40008a88:	ea000235 	b	40009364 <vsprintf+0x8fc>
40008a8c:	e51b303c 	ldr	r3, [fp, #-60]	; 0x3c
40008a90:	e5d33000 	ldrb	r3, [r3]
40008a94:	e3530025 	cmp	r3, #37	; 0x25
40008a98:	0a000007 	beq	40008abc <vsprintf+0x54>
40008a9c:	e51b303c 	ldr	r3, [fp, #-60]	; 0x3c
40008aa0:	e5d32000 	ldrb	r2, [r3]
40008aa4:	e51b3014 	ldr	r3, [fp, #-20]
40008aa8:	e5c32000 	strb	r2, [r3]
40008aac:	e51b3014 	ldr	r3, [fp, #-20]
40008ab0:	e2833001 	add	r3, r3, #1
40008ab4:	e50b3014 	str	r3, [fp, #-20]
40008ab8:	ea000226 	b	40009358 <vsprintf+0x8f0>
40008abc:	e3a03000 	mov	r3, #0
40008ac0:	e50b301c 	str	r3, [fp, #-28]
40008ac4:	e51b303c 	ldr	r3, [fp, #-60]	; 0x3c
40008ac8:	e2833001 	add	r3, r3, #1
40008acc:	e50b303c 	str	r3, [fp, #-60]	; 0x3c
40008ad0:	e51b303c 	ldr	r3, [fp, #-60]	; 0x3c
40008ad4:	e5d33000 	ldrb	r3, [r3]
40008ad8:	e2433020 	sub	r3, r3, #32
40008adc:	e3530010 	cmp	r3, #16
40008ae0:	979ff103 	ldrls	pc, [pc, r3, lsl #2]
40008ae4:	ea000024 	b	40008b7c <vsprintf+0x114>
40008ae8:	40008b4c 	andmi	r8, r0, ip, asr #22
40008aec:	40008b7c 	andmi	r8, r0, ip, ror fp
40008af0:	40008b7c 	andmi	r8, r0, ip, ror fp
40008af4:	40008b5c 	andmi	r8, r0, ip, asr fp
40008af8:	40008b7c 	andmi	r8, r0, ip, ror fp
40008afc:	40008b7c 	andmi	r8, r0, ip, ror fp
40008b00:	40008b7c 	andmi	r8, r0, ip, ror fp
40008b04:	40008b7c 	andmi	r8, r0, ip, ror fp
40008b08:	40008b7c 	andmi	r8, r0, ip, ror fp
40008b0c:	40008b7c 	andmi	r8, r0, ip, ror fp
40008b10:	40008b7c 	andmi	r8, r0, ip, ror fp
40008b14:	40008b3c 	andmi	r8, r0, ip, lsr fp
40008b18:	40008b7c 	andmi	r8, r0, ip, ror fp
40008b1c:	40008b2c 	andmi	r8, r0, ip, lsr #22
40008b20:	40008b7c 	andmi	r8, r0, ip, ror fp
40008b24:	40008b7c 	andmi	r8, r0, ip, ror fp
40008b28:	40008b6c 	andmi	r8, r0, ip, ror #22
40008b2c:	e51b301c 	ldr	r3, [fp, #-28]
40008b30:	e3833010 	orr	r3, r3, #16
40008b34:	e50b301c 	str	r3, [fp, #-28]
40008b38:	eaffffe1 	b	40008ac4 <vsprintf+0x5c>
40008b3c:	e51b301c 	ldr	r3, [fp, #-28]
40008b40:	e3833004 	orr	r3, r3, #4
40008b44:	e50b301c 	str	r3, [fp, #-28]
40008b48:	eaffffdd 	b	40008ac4 <vsprintf+0x5c>
40008b4c:	e51b301c 	ldr	r3, [fp, #-28]
40008b50:	e3833008 	orr	r3, r3, #8
40008b54:	e50b301c 	str	r3, [fp, #-28]
40008b58:	eaffffd9 	b	40008ac4 <vsprintf+0x5c>
40008b5c:	e51b301c 	ldr	r3, [fp, #-28]
40008b60:	e3833020 	orr	r3, r3, #32
40008b64:	e50b301c 	str	r3, [fp, #-28]
40008b68:	eaffffd5 	b	40008ac4 <vsprintf+0x5c>
40008b6c:	e51b301c 	ldr	r3, [fp, #-28]
40008b70:	e3833001 	orr	r3, r3, #1
40008b74:	e50b301c 	str	r3, [fp, #-28]
40008b78:	eaffffd1 	b	40008ac4 <vsprintf+0x5c>
40008b7c:	e3e03000 	mvn	r3, #0
40008b80:	e50b3020 	str	r3, [fp, #-32]
40008b84:	e51b303c 	ldr	r3, [fp, #-60]	; 0x3c
40008b88:	e5d33000 	ldrb	r3, [r3]
40008b8c:	e353002f 	cmp	r3, #47	; 0x2f
40008b90:	9a000008 	bls	40008bb8 <vsprintf+0x150>
40008b94:	e51b303c 	ldr	r3, [fp, #-60]	; 0x3c
40008b98:	e5d33000 	ldrb	r3, [r3]
40008b9c:	e3530039 	cmp	r3, #57	; 0x39
40008ba0:	8a000004 	bhi	40008bb8 <vsprintf+0x150>
40008ba4:	e24b303c 	sub	r3, fp, #60	; 0x3c
40008ba8:	e1a00003 	mov	r0, r3
40008bac:	ebfffe42 	bl	400084bc <skip_atoi>
40008bb0:	e50b0020 	str	r0, [fp, #-32]
40008bb4:	ea000014 	b	40008c0c <vsprintf+0x1a4>
40008bb8:	e51b303c 	ldr	r3, [fp, #-60]	; 0x3c
40008bbc:	e5d33000 	ldrb	r3, [r3]
40008bc0:	e353002a 	cmp	r3, #42	; 0x2a
40008bc4:	1a000010 	bne	40008c0c <vsprintf+0x1a4>
40008bc8:	e51b303c 	ldr	r3, [fp, #-60]	; 0x3c
40008bcc:	e2833001 	add	r3, r3, #1
40008bd0:	e50b303c 	str	r3, [fp, #-60]	; 0x3c
40008bd4:	e51b3040 	ldr	r3, [fp, #-64]	; 0x40
40008bd8:	e2832004 	add	r2, r3, #4
40008bdc:	e50b2040 	str	r2, [fp, #-64]	; 0x40
40008be0:	e5933000 	ldr	r3, [r3]
40008be4:	e50b3020 	str	r3, [fp, #-32]
40008be8:	e51b3020 	ldr	r3, [fp, #-32]
40008bec:	e3530000 	cmp	r3, #0
40008bf0:	aa000005 	bge	40008c0c <vsprintf+0x1a4>
40008bf4:	e51b3020 	ldr	r3, [fp, #-32]
40008bf8:	e2633000 	rsb	r3, r3, #0
40008bfc:	e50b3020 	str	r3, [fp, #-32]
40008c00:	e51b301c 	ldr	r3, [fp, #-28]
40008c04:	e3833010 	orr	r3, r3, #16
40008c08:	e50b301c 	str	r3, [fp, #-28]
40008c0c:	e3e03000 	mvn	r3, #0
40008c10:	e50b3024 	str	r3, [fp, #-36]	; 0x24
40008c14:	e51b303c 	ldr	r3, [fp, #-60]	; 0x3c
40008c18:	e5d33000 	ldrb	r3, [r3]
40008c1c:	e353002e 	cmp	r3, #46	; 0x2e
40008c20:	1a000020 	bne	40008ca8 <vsprintf+0x240>
40008c24:	e51b303c 	ldr	r3, [fp, #-60]	; 0x3c
40008c28:	e2833001 	add	r3, r3, #1
40008c2c:	e50b303c 	str	r3, [fp, #-60]	; 0x3c
40008c30:	e51b303c 	ldr	r3, [fp, #-60]	; 0x3c
40008c34:	e5d33000 	ldrb	r3, [r3]
40008c38:	e353002f 	cmp	r3, #47	; 0x2f
40008c3c:	9a000008 	bls	40008c64 <vsprintf+0x1fc>
40008c40:	e51b303c 	ldr	r3, [fp, #-60]	; 0x3c
40008c44:	e5d33000 	ldrb	r3, [r3]
40008c48:	e3530039 	cmp	r3, #57	; 0x39
40008c4c:	8a000004 	bhi	40008c64 <vsprintf+0x1fc>
40008c50:	e24b303c 	sub	r3, fp, #60	; 0x3c
40008c54:	e1a00003 	mov	r0, r3
40008c58:	ebfffe17 	bl	400084bc <skip_atoi>
40008c5c:	e50b0024 	str	r0, [fp, #-36]	; 0x24
40008c60:	ea00000b 	b	40008c94 <vsprintf+0x22c>
40008c64:	e51b303c 	ldr	r3, [fp, #-60]	; 0x3c
40008c68:	e5d33000 	ldrb	r3, [r3]
40008c6c:	e353002a 	cmp	r3, #42	; 0x2a
40008c70:	1a000007 	bne	40008c94 <vsprintf+0x22c>
40008c74:	e51b303c 	ldr	r3, [fp, #-60]	; 0x3c
40008c78:	e2833001 	add	r3, r3, #1
40008c7c:	e50b303c 	str	r3, [fp, #-60]	; 0x3c
40008c80:	e51b3040 	ldr	r3, [fp, #-64]	; 0x40
40008c84:	e2832004 	add	r2, r3, #4
40008c88:	e50b2040 	str	r2, [fp, #-64]	; 0x40
40008c8c:	e5933000 	ldr	r3, [r3]
40008c90:	e50b3024 	str	r3, [fp, #-36]	; 0x24
40008c94:	e51b3024 	ldr	r3, [fp, #-36]	; 0x24
40008c98:	e3530000 	cmp	r3, #0
40008c9c:	aa000001 	bge	40008ca8 <vsprintf+0x240>
40008ca0:	e3a03000 	mov	r3, #0
40008ca4:	e50b3024 	str	r3, [fp, #-36]	; 0x24
40008ca8:	e3e03000 	mvn	r3, #0
40008cac:	e50b3028 	str	r3, [fp, #-40]	; 0x28
40008cb0:	e51b303c 	ldr	r3, [fp, #-60]	; 0x3c
40008cb4:	e5d33000 	ldrb	r3, [r3]
40008cb8:	e3530068 	cmp	r3, #104	; 0x68
40008cbc:	0a000017 	beq	40008d20 <vsprintf+0x2b8>
40008cc0:	e51b303c 	ldr	r3, [fp, #-60]	; 0x3c
40008cc4:	e5d33000 	ldrb	r3, [r3]
40008cc8:	e353006c 	cmp	r3, #108	; 0x6c
40008ccc:	0a000013 	beq	40008d20 <vsprintf+0x2b8>
40008cd0:	e51b303c 	ldr	r3, [fp, #-60]	; 0x3c
40008cd4:	e5d33000 	ldrb	r3, [r3]
40008cd8:	e353004c 	cmp	r3, #76	; 0x4c
40008cdc:	0a00000f 	beq	40008d20 <vsprintf+0x2b8>
40008ce0:	e51b303c 	ldr	r3, [fp, #-60]	; 0x3c
40008ce4:	e5d33000 	ldrb	r3, [r3]
40008ce8:	e353005a 	cmp	r3, #90	; 0x5a
40008cec:	0a00000b 	beq	40008d20 <vsprintf+0x2b8>
40008cf0:	e51b303c 	ldr	r3, [fp, #-60]	; 0x3c
40008cf4:	e5d33000 	ldrb	r3, [r3]
40008cf8:	e353007a 	cmp	r3, #122	; 0x7a
40008cfc:	0a000007 	beq	40008d20 <vsprintf+0x2b8>
40008d00:	e51b303c 	ldr	r3, [fp, #-60]	; 0x3c
40008d04:	e5d33000 	ldrb	r3, [r3]
40008d08:	e3530074 	cmp	r3, #116	; 0x74
40008d0c:	0a000003 	beq	40008d20 <vsprintf+0x2b8>
40008d10:	e51b303c 	ldr	r3, [fp, #-60]	; 0x3c
40008d14:	e5d33000 	ldrb	r3, [r3]
40008d18:	e3530071 	cmp	r3, #113	; 0x71
40008d1c:	1a000012 	bne	40008d6c <vsprintf+0x304>
40008d20:	e51b303c 	ldr	r3, [fp, #-60]	; 0x3c
40008d24:	e5d33000 	ldrb	r3, [r3]
40008d28:	e50b3028 	str	r3, [fp, #-40]	; 0x28
40008d2c:	e51b3028 	ldr	r3, [fp, #-40]	; 0x28
40008d30:	e353006c 	cmp	r3, #108	; 0x6c
40008d34:	1a000009 	bne	40008d60 <vsprintf+0x2f8>
40008d38:	e51b303c 	ldr	r3, [fp, #-60]	; 0x3c
40008d3c:	e2833001 	add	r3, r3, #1
40008d40:	e5d33000 	ldrb	r3, [r3]
40008d44:	e353006c 	cmp	r3, #108	; 0x6c
40008d48:	1a000004 	bne	40008d60 <vsprintf+0x2f8>
40008d4c:	e3a03071 	mov	r3, #113	; 0x71
40008d50:	e50b3028 	str	r3, [fp, #-40]	; 0x28
40008d54:	e51b303c 	ldr	r3, [fp, #-60]	; 0x3c
40008d58:	e2833001 	add	r3, r3, #1
40008d5c:	e50b303c 	str	r3, [fp, #-60]	; 0x3c
40008d60:	e51b303c 	ldr	r3, [fp, #-60]	; 0x3c
40008d64:	e2833001 	add	r3, r3, #1
40008d68:	e50b303c 	str	r3, [fp, #-60]	; 0x3c
40008d6c:	e3a0300a 	mov	r3, #10
40008d70:	e50b3010 	str	r3, [fp, #-16]
40008d74:	e51b303c 	ldr	r3, [fp, #-60]	; 0x3c
40008d78:	e5d33000 	ldrb	r3, [r3]
40008d7c:	e2433025 	sub	r3, r3, #37	; 0x25
40008d80:	e3530053 	cmp	r3, #83	; 0x53
40008d84:	979ff103 	ldrls	pc, [pc, r3, lsl #2]
40008d88:	ea00010d 	b	400091c4 <vsprintf+0x75c>
40008d8c:	40009174 	andmi	r9, r0, r4, ror r1
40008d90:	400091c4 	andmi	r9, r0, r4, asr #3
40008d94:	400091c4 	andmi	r9, r0, r4, asr #3
40008d98:	400091c4 	andmi	r9, r0, r4, asr #3
40008d9c:	400091c4 	andmi	r9, r0, r4, asr #3
40008da0:	400091c4 	andmi	r9, r0, r4, asr #3
40008da4:	400091c4 	andmi	r9, r0, r4, asr #3
40008da8:	400091c4 	andmi	r9, r0, r4, asr #3
40008dac:	400091c4 	andmi	r9, r0, r4, asr #3
40008db0:	400091c4 	andmi	r9, r0, r4, asr #3
40008db4:	400091c4 	andmi	r9, r0, r4, asr #3
40008db8:	400091c4 	andmi	r9, r0, r4, asr #3
40008dbc:	400091c4 	andmi	r9, r0, r4, asr #3
40008dc0:	400091c4 	andmi	r9, r0, r4, asr #3
40008dc4:	400091c4 	andmi	r9, r0, r4, asr #3
40008dc8:	400091c4 	andmi	r9, r0, r4, asr #3
40008dcc:	400091c4 	andmi	r9, r0, r4, asr #3
40008dd0:	400091c4 	andmi	r9, r0, r4, asr #3
40008dd4:	400091c4 	andmi	r9, r0, r4, asr #3
40008dd8:	400091c4 	andmi	r9, r0, r4, asr #3
40008ddc:	400091c4 	andmi	r9, r0, r4, asr #3
40008de0:	400091c4 	andmi	r9, r0, r4, asr #3
40008de4:	400091c4 	andmi	r9, r0, r4, asr #3
40008de8:	400091c4 	andmi	r9, r0, r4, asr #3
40008dec:	400091c4 	andmi	r9, r0, r4, asr #3
40008df0:	400091c4 	andmi	r9, r0, r4, asr #3
40008df4:	400091c4 	andmi	r9, r0, r4, asr #3
40008df8:	400091c4 	andmi	r9, r0, r4, asr #3
40008dfc:	400091c4 	andmi	r9, r0, r4, asr #3
40008e00:	400091c4 	andmi	r9, r0, r4, asr #3
40008e04:	400091c4 	andmi	r9, r0, r4, asr #3
40008e08:	400091c4 	andmi	r9, r0, r4, asr #3
40008e0c:	400091c4 	andmi	r9, r0, r4, asr #3
40008e10:	400091c4 	andmi	r9, r0, r4, asr #3
40008e14:	400091c4 	andmi	r9, r0, r4, asr #3
40008e18:	400091c4 	andmi	r9, r0, r4, asr #3
40008e1c:	400091c4 	andmi	r9, r0, r4, asr #3
40008e20:	400091c4 	andmi	r9, r0, r4, asr #3
40008e24:	400091c4 	andmi	r9, r0, r4, asr #3
40008e28:	400091c4 	andmi	r9, r0, r4, asr #3
40008e2c:	400091c4 	andmi	r9, r0, r4, asr #3
40008e30:	400091c4 	andmi	r9, r0, r4, asr #3
40008e34:	400091c4 	andmi	r9, r0, r4, asr #3
40008e38:	400091c4 	andmi	r9, r0, r4, asr #3
40008e3c:	400091c4 	andmi	r9, r0, r4, asr #3
40008e40:	400091c4 	andmi	r9, r0, r4, asr #3
40008e44:	400091c4 	andmi	r9, r0, r4, asr #3
40008e48:	400091c4 	andmi	r9, r0, r4, asr #3
40008e4c:	400091c4 	andmi	r9, r0, r4, asr #3
40008e50:	400091c4 	andmi	r9, r0, r4, asr #3
40008e54:	400091c4 	andmi	r9, r0, r4, asr #3
40008e58:	4000919c 	mulmi	r0, ip, r1
40008e5c:	400091c4 	andmi	r9, r0, r4, asr #3
40008e60:	400091c4 	andmi	r9, r0, r4, asr #3
40008e64:	400091c4 	andmi	r9, r0, r4, asr #3
40008e68:	400091c4 	andmi	r9, r0, r4, asr #3
40008e6c:	400091c4 	andmi	r9, r0, r4, asr #3
40008e70:	400091c4 	andmi	r9, r0, r4, asr #3
40008e74:	400091c4 	andmi	r9, r0, r4, asr #3
40008e78:	400091c4 	andmi	r9, r0, r4, asr #3
40008e7c:	400091c4 	andmi	r9, r0, r4, asr #3
40008e80:	400091c4 	andmi	r9, r0, r4, asr #3
40008e84:	40008edc 	ldrdmi	r8, [r0], -ip
40008e88:	400091b4 			; <UNDEFINED> instruction: 0x400091b4
40008e8c:	400091c4 	andmi	r9, r0, r4, asr #3
40008e90:	400091c4 	andmi	r9, r0, r4, asr #3
40008e94:	400091c4 	andmi	r9, r0, r4, asr #3
40008e98:	400091c4 	andmi	r9, r0, r4, asr #3
40008e9c:	400091b4 			; <UNDEFINED> instruction: 0x400091b4
40008ea0:	400091c4 	andmi	r9, r0, r4, asr #3
40008ea4:	400091c4 	andmi	r9, r0, r4, asr #3
40008ea8:	400091c4 	andmi	r9, r0, r4, asr #3
40008eac:	400091c4 	andmi	r9, r0, r4, asr #3
40008eb0:	40009110 	andmi	r9, r0, r0, lsl r1
40008eb4:	40009190 	mulmi	r0, r0, r1
40008eb8:	400090b4 	strhmi	r9, [r0], -r4
40008ebc:	400091c4 	andmi	r9, r0, r4, asr #3
40008ec0:	400091c4 	andmi	r9, r0, r4, asr #3
40008ec4:	40008f80 	andmi	r8, r0, r0, lsl #31
40008ec8:	400091c4 	andmi	r9, r0, r4, asr #3
40008ecc:	4000921c 	andmi	r9, r0, ip, lsl r2
40008ed0:	400091c4 	andmi	r9, r0, r4, asr #3
40008ed4:	400091c4 	andmi	r9, r0, r4, asr #3
40008ed8:	400091a8 	andmi	r9, r0, r8, lsr #3
40008edc:	e51b301c 	ldr	r3, [fp, #-28]
40008ee0:	e2033010 	and	r3, r3, #16
40008ee4:	e3530000 	cmp	r3, #0
40008ee8:	1a00000c 	bne	40008f20 <vsprintf+0x4b8>
40008eec:	ea000005 	b	40008f08 <vsprintf+0x4a0>
40008ef0:	e51b3014 	ldr	r3, [fp, #-20]
40008ef4:	e3a02020 	mov	r2, #32
40008ef8:	e5c32000 	strb	r2, [r3]
40008efc:	e51b3014 	ldr	r3, [fp, #-20]
40008f00:	e2833001 	add	r3, r3, #1
40008f04:	e50b3014 	str	r3, [fp, #-20]
40008f08:	e51b3020 	ldr	r3, [fp, #-32]
40008f0c:	e2433001 	sub	r3, r3, #1
40008f10:	e50b3020 	str	r3, [fp, #-32]
40008f14:	e51b3020 	ldr	r3, [fp, #-32]
40008f18:	e3530000 	cmp	r3, #0
40008f1c:	cafffff3 	bgt	40008ef0 <vsprintf+0x488>
40008f20:	e51b3040 	ldr	r3, [fp, #-64]	; 0x40
40008f24:	e2832004 	add	r2, r3, #4
40008f28:	e50b2040 	str	r2, [fp, #-64]	; 0x40
40008f2c:	e5933000 	ldr	r3, [r3]
40008f30:	e20320ff 	and	r2, r3, #255	; 0xff
40008f34:	e51b3014 	ldr	r3, [fp, #-20]
40008f38:	e5c32000 	strb	r2, [r3]
40008f3c:	e51b3014 	ldr	r3, [fp, #-20]
40008f40:	e2833001 	add	r3, r3, #1
40008f44:	e50b3014 	str	r3, [fp, #-20]
40008f48:	ea000005 	b	40008f64 <vsprintf+0x4fc>
40008f4c:	e51b3014 	ldr	r3, [fp, #-20]
40008f50:	e3a02020 	mov	r2, #32
40008f54:	e5c32000 	strb	r2, [r3]
40008f58:	e51b3014 	ldr	r3, [fp, #-20]
40008f5c:	e2833001 	add	r3, r3, #1
40008f60:	e50b3014 	str	r3, [fp, #-20]
40008f64:	e51b3020 	ldr	r3, [fp, #-32]
40008f68:	e2433001 	sub	r3, r3, #1
40008f6c:	e50b3020 	str	r3, [fp, #-32]
40008f70:	e51b3020 	ldr	r3, [fp, #-32]
40008f74:	e3530000 	cmp	r3, #0
40008f78:	cafffff3 	bgt	40008f4c <vsprintf+0x4e4>
40008f7c:	ea0000f5 	b	40009358 <vsprintf+0x8f0>
40008f80:	e51b3040 	ldr	r3, [fp, #-64]	; 0x40
40008f84:	e2832004 	add	r2, r3, #4
40008f88:	e50b2040 	str	r2, [fp, #-64]	; 0x40
40008f8c:	e5933000 	ldr	r3, [r3]
40008f90:	e50b3018 	str	r3, [fp, #-24]
40008f94:	e51b3018 	ldr	r3, [fp, #-24]
40008f98:	e3530000 	cmp	r3, #0
40008f9c:	1a000001 	bne	40008fa8 <vsprintf+0x540>
40008fa0:	e59f33f4 	ldr	r3, [pc, #1012]	; 4000939c <vsprintf+0x934>
40008fa4:	e50b3018 	str	r3, [fp, #-24]
40008fa8:	e51b3024 	ldr	r3, [fp, #-36]	; 0x24
40008fac:	e51b0018 	ldr	r0, [fp, #-24]
40008fb0:	e1a01003 	mov	r1, r3
40008fb4:	ebfffe8b 	bl	400089e8 <strnlen>
40008fb8:	e1a03000 	mov	r3, r0
40008fbc:	e50b302c 	str	r3, [fp, #-44]	; 0x2c
40008fc0:	e51b301c 	ldr	r3, [fp, #-28]
40008fc4:	e2033010 	and	r3, r3, #16
40008fc8:	e3530000 	cmp	r3, #0
40008fcc:	1a000011 	bne	40009018 <vsprintf+0x5b0>
40008fd0:	ea000005 	b	40008fec <vsprintf+0x584>
40008fd4:	e51b3014 	ldr	r3, [fp, #-20]
40008fd8:	e3a02020 	mov	r2, #32
40008fdc:	e5c32000 	strb	r2, [r3]
40008fe0:	e51b3014 	ldr	r3, [fp, #-20]
40008fe4:	e2833001 	add	r3, r3, #1
40008fe8:	e50b3014 	str	r3, [fp, #-20]
40008fec:	e51b2020 	ldr	r2, [fp, #-32]
40008ff0:	e51b302c 	ldr	r3, [fp, #-44]	; 0x2c
40008ff4:	e1520003 	cmp	r2, r3
40008ff8:	d3a03000 	movle	r3, #0
40008ffc:	c3a03001 	movgt	r3, #1
40009000:	e20330ff 	and	r3, r3, #255	; 0xff
40009004:	e51b2020 	ldr	r2, [fp, #-32]
40009008:	e2422001 	sub	r2, r2, #1
4000900c:	e50b2020 	str	r2, [fp, #-32]
40009010:	e3530000 	cmp	r3, #0
40009014:	1affffee 	bne	40008fd4 <vsprintf+0x56c>
40009018:	e3a03000 	mov	r3, #0
4000901c:	e50b300c 	str	r3, [fp, #-12]
40009020:	ea00000c 	b	40009058 <vsprintf+0x5f0>
40009024:	e51b3018 	ldr	r3, [fp, #-24]
40009028:	e5d32000 	ldrb	r2, [r3]
4000902c:	e51b3014 	ldr	r3, [fp, #-20]
40009030:	e5c32000 	strb	r2, [r3]
40009034:	e51b3014 	ldr	r3, [fp, #-20]
40009038:	e2833001 	add	r3, r3, #1
4000903c:	e50b3014 	str	r3, [fp, #-20]
40009040:	e51b3018 	ldr	r3, [fp, #-24]
40009044:	e2833001 	add	r3, r3, #1
40009048:	e50b3018 	str	r3, [fp, #-24]
4000904c:	e51b300c 	ldr	r3, [fp, #-12]
40009050:	e2833001 	add	r3, r3, #1
40009054:	e50b300c 	str	r3, [fp, #-12]
40009058:	e51b200c 	ldr	r2, [fp, #-12]
4000905c:	e51b302c 	ldr	r3, [fp, #-44]	; 0x2c
40009060:	e1520003 	cmp	r2, r3
40009064:	baffffee 	blt	40009024 <vsprintf+0x5bc>
40009068:	ea000005 	b	40009084 <vsprintf+0x61c>
4000906c:	e51b3014 	ldr	r3, [fp, #-20]
40009070:	e3a02020 	mov	r2, #32
40009074:	e5c32000 	strb	r2, [r3]
40009078:	e51b3014 	ldr	r3, [fp, #-20]
4000907c:	e2833001 	add	r3, r3, #1
40009080:	e50b3014 	str	r3, [fp, #-20]
40009084:	e51b2020 	ldr	r2, [fp, #-32]
40009088:	e51b302c 	ldr	r3, [fp, #-44]	; 0x2c
4000908c:	e1520003 	cmp	r2, r3
40009090:	d3a03000 	movle	r3, #0
40009094:	c3a03001 	movgt	r3, #1
40009098:	e20330ff 	and	r3, r3, #255	; 0xff
4000909c:	e51b2020 	ldr	r2, [fp, #-32]
400090a0:	e2422001 	sub	r2, r2, #1
400090a4:	e50b2020 	str	r2, [fp, #-32]
400090a8:	e3530000 	cmp	r3, #0
400090ac:	1affffee 	bne	4000906c <vsprintf+0x604>
400090b0:	ea0000a8 	b	40009358 <vsprintf+0x8f0>
400090b4:	e51b3020 	ldr	r3, [fp, #-32]
400090b8:	e3730001 	cmn	r3, #1
400090bc:	1a000004 	bne	400090d4 <vsprintf+0x66c>
400090c0:	e3a03008 	mov	r3, #8
400090c4:	e50b3020 	str	r3, [fp, #-32]
400090c8:	e51b301c 	ldr	r3, [fp, #-28]
400090cc:	e3833001 	orr	r3, r3, #1
400090d0:	e50b301c 	str	r3, [fp, #-28]
400090d4:	e51b3040 	ldr	r3, [fp, #-64]	; 0x40
400090d8:	e2832004 	add	r2, r3, #4
400090dc:	e50b2040 	str	r2, [fp, #-64]	; 0x40
400090e0:	e5933000 	ldr	r3, [r3]
400090e4:	e51b2024 	ldr	r2, [fp, #-36]	; 0x24
400090e8:	e58d2000 	str	r2, [sp]
400090ec:	e51b201c 	ldr	r2, [fp, #-28]
400090f0:	e58d2004 	str	r2, [sp, #4]
400090f4:	e51b0014 	ldr	r0, [fp, #-20]
400090f8:	e1a01003 	mov	r1, r3
400090fc:	e3a02010 	mov	r2, #16
40009100:	e51b3020 	ldr	r3, [fp, #-32]
40009104:	ebfffd11 	bl	40008550 <number>
40009108:	e50b0014 	str	r0, [fp, #-20]
4000910c:	ea000091 	b	40009358 <vsprintf+0x8f0>
40009110:	e51b3028 	ldr	r3, [fp, #-40]	; 0x28
40009114:	e353006c 	cmp	r3, #108	; 0x6c
40009118:	1a00000a 	bne	40009148 <vsprintf+0x6e0>
4000911c:	e51b3040 	ldr	r3, [fp, #-64]	; 0x40
40009120:	e2832004 	add	r2, r3, #4
40009124:	e50b2040 	str	r2, [fp, #-64]	; 0x40
40009128:	e5933000 	ldr	r3, [r3]
4000912c:	e50b3030 	str	r3, [fp, #-48]	; 0x30
40009130:	e51b2014 	ldr	r2, [fp, #-20]
40009134:	e51b3038 	ldr	r3, [fp, #-56]	; 0x38
40009138:	e0632002 	rsb	r2, r3, r2
4000913c:	e51b3030 	ldr	r3, [fp, #-48]	; 0x30
40009140:	e5832000 	str	r2, [r3]
40009144:	ea000083 	b	40009358 <vsprintf+0x8f0>
40009148:	e51b3040 	ldr	r3, [fp, #-64]	; 0x40
4000914c:	e2832004 	add	r2, r3, #4
40009150:	e50b2040 	str	r2, [fp, #-64]	; 0x40
40009154:	e5933000 	ldr	r3, [r3]
40009158:	e50b3034 	str	r3, [fp, #-52]	; 0x34
4000915c:	e51b2014 	ldr	r2, [fp, #-20]
40009160:	e51b3038 	ldr	r3, [fp, #-56]	; 0x38
40009164:	e0632002 	rsb	r2, r3, r2
40009168:	e51b3034 	ldr	r3, [fp, #-52]	; 0x34
4000916c:	e5832000 	str	r2, [r3]
40009170:	ea000078 	b	40009358 <vsprintf+0x8f0>
40009174:	e51b3014 	ldr	r3, [fp, #-20]
40009178:	e3a02025 	mov	r2, #37	; 0x25
4000917c:	e5c32000 	strb	r2, [r3]
40009180:	e51b3014 	ldr	r3, [fp, #-20]
40009184:	e2833001 	add	r3, r3, #1
40009188:	e50b3014 	str	r3, [fp, #-20]
4000918c:	ea000071 	b	40009358 <vsprintf+0x8f0>
40009190:	e3a03008 	mov	r3, #8
40009194:	e50b3010 	str	r3, [fp, #-16]
40009198:	ea000020 	b	40009220 <vsprintf+0x7b8>
4000919c:	e51b301c 	ldr	r3, [fp, #-28]
400091a0:	e3833040 	orr	r3, r3, #64	; 0x40
400091a4:	e50b301c 	str	r3, [fp, #-28]
400091a8:	e3a03010 	mov	r3, #16
400091ac:	e50b3010 	str	r3, [fp, #-16]
400091b0:	ea00001a 	b	40009220 <vsprintf+0x7b8>
400091b4:	e51b301c 	ldr	r3, [fp, #-28]
400091b8:	e3833002 	orr	r3, r3, #2
400091bc:	e50b301c 	str	r3, [fp, #-28]
400091c0:	ea000015 	b	4000921c <vsprintf+0x7b4>
400091c4:	e51b3014 	ldr	r3, [fp, #-20]
400091c8:	e3a02025 	mov	r2, #37	; 0x25
400091cc:	e5c32000 	strb	r2, [r3]
400091d0:	e51b3014 	ldr	r3, [fp, #-20]
400091d4:	e2833001 	add	r3, r3, #1
400091d8:	e50b3014 	str	r3, [fp, #-20]
400091dc:	e51b303c 	ldr	r3, [fp, #-60]	; 0x3c
400091e0:	e5d33000 	ldrb	r3, [r3]
400091e4:	e3530000 	cmp	r3, #0
400091e8:	0a000007 	beq	4000920c <vsprintf+0x7a4>
400091ec:	e51b303c 	ldr	r3, [fp, #-60]	; 0x3c
400091f0:	e5d32000 	ldrb	r2, [r3]
400091f4:	e51b3014 	ldr	r3, [fp, #-20]
400091f8:	e5c32000 	strb	r2, [r3]
400091fc:	e51b3014 	ldr	r3, [fp, #-20]
40009200:	e2833001 	add	r3, r3, #1
40009204:	e50b3014 	str	r3, [fp, #-20]
40009208:	ea000052 	b	40009358 <vsprintf+0x8f0>
4000920c:	e51b303c 	ldr	r3, [fp, #-60]	; 0x3c
40009210:	e2433001 	sub	r3, r3, #1
40009214:	e50b303c 	str	r3, [fp, #-60]	; 0x3c
40009218:	ea00004e 	b	40009358 <vsprintf+0x8f0>
4000921c:	e1a00000 	nop			; (mov r0, r0)
40009220:	e51b3028 	ldr	r3, [fp, #-40]	; 0x28
40009224:	e353006c 	cmp	r3, #108	; 0x6c
40009228:	1a000005 	bne	40009244 <vsprintf+0x7dc>
4000922c:	e51b3040 	ldr	r3, [fp, #-64]	; 0x40
40009230:	e2832004 	add	r2, r3, #4
40009234:	e50b2040 	str	r2, [fp, #-64]	; 0x40
40009238:	e5933000 	ldr	r3, [r3]
4000923c:	e50b3008 	str	r3, [fp, #-8]
40009240:	ea000038 	b	40009328 <vsprintf+0x8c0>
40009244:	e51b3028 	ldr	r3, [fp, #-40]	; 0x28
40009248:	e353005a 	cmp	r3, #90	; 0x5a
4000924c:	0a000002 	beq	4000925c <vsprintf+0x7f4>
40009250:	e51b3028 	ldr	r3, [fp, #-40]	; 0x28
40009254:	e353007a 	cmp	r3, #122	; 0x7a
40009258:	1a000005 	bne	40009274 <vsprintf+0x80c>
4000925c:	e51b3040 	ldr	r3, [fp, #-64]	; 0x40
40009260:	e2832004 	add	r2, r3, #4
40009264:	e50b2040 	str	r2, [fp, #-64]	; 0x40
40009268:	e5933000 	ldr	r3, [r3]
4000926c:	e50b3008 	str	r3, [fp, #-8]
40009270:	ea00002c 	b	40009328 <vsprintf+0x8c0>
40009274:	e51b3028 	ldr	r3, [fp, #-40]	; 0x28
40009278:	e3530074 	cmp	r3, #116	; 0x74
4000927c:	1a000005 	bne	40009298 <vsprintf+0x830>
40009280:	e51b3040 	ldr	r3, [fp, #-64]	; 0x40
40009284:	e2832004 	add	r2, r3, #4
40009288:	e50b2040 	str	r2, [fp, #-64]	; 0x40
4000928c:	e5933000 	ldr	r3, [r3]
40009290:	e50b3008 	str	r3, [fp, #-8]
40009294:	ea000023 	b	40009328 <vsprintf+0x8c0>
40009298:	e51b3028 	ldr	r3, [fp, #-40]	; 0x28
4000929c:	e3530068 	cmp	r3, #104	; 0x68
400092a0:	1a000011 	bne	400092ec <vsprintf+0x884>
400092a4:	e51b3040 	ldr	r3, [fp, #-64]	; 0x40
400092a8:	e2832004 	add	r2, r3, #4
400092ac:	e50b2040 	str	r2, [fp, #-64]	; 0x40
400092b0:	e5933000 	ldr	r3, [r3]
400092b4:	e1a03803 	lsl	r3, r3, #16
400092b8:	e1a03823 	lsr	r3, r3, #16
400092bc:	e50b3008 	str	r3, [fp, #-8]
400092c0:	e51b301c 	ldr	r3, [fp, #-28]
400092c4:	e2033002 	and	r3, r3, #2
400092c8:	e3530000 	cmp	r3, #0
400092cc:	0a000015 	beq	40009328 <vsprintf+0x8c0>
400092d0:	e51b3008 	ldr	r3, [fp, #-8]
400092d4:	e1a03803 	lsl	r3, r3, #16
400092d8:	e1a03823 	lsr	r3, r3, #16
400092dc:	e1a03803 	lsl	r3, r3, #16
400092e0:	e1a03843 	asr	r3, r3, #16
400092e4:	e50b3008 	str	r3, [fp, #-8]
400092e8:	ea00000e 	b	40009328 <vsprintf+0x8c0>
400092ec:	e51b301c 	ldr	r3, [fp, #-28]
400092f0:	e2033002 	and	r3, r3, #2
400092f4:	e3530000 	cmp	r3, #0
400092f8:	0a000005 	beq	40009314 <vsprintf+0x8ac>
400092fc:	e51b3040 	ldr	r3, [fp, #-64]	; 0x40
40009300:	e2832004 	add	r2, r3, #4
40009304:	e50b2040 	str	r2, [fp, #-64]	; 0x40
40009308:	e5933000 	ldr	r3, [r3]
4000930c:	e50b3008 	str	r3, [fp, #-8]
40009310:	ea000004 	b	40009328 <vsprintf+0x8c0>
40009314:	e51b3040 	ldr	r3, [fp, #-64]	; 0x40
40009318:	e2832004 	add	r2, r3, #4
4000931c:	e50b2040 	str	r2, [fp, #-64]	; 0x40
40009320:	e5933000 	ldr	r3, [r3]
40009324:	e50b3008 	str	r3, [fp, #-8]
40009328:	e51b2008 	ldr	r2, [fp, #-8]
4000932c:	e51b3010 	ldr	r3, [fp, #-16]
40009330:	e51b1024 	ldr	r1, [fp, #-36]	; 0x24
40009334:	e58d1000 	str	r1, [sp]
40009338:	e51b101c 	ldr	r1, [fp, #-28]
4000933c:	e58d1004 	str	r1, [sp, #4]
40009340:	e51b0014 	ldr	r0, [fp, #-20]
40009344:	e1a01002 	mov	r1, r2
40009348:	e1a02003 	mov	r2, r3
4000934c:	e51b3020 	ldr	r3, [fp, #-32]
40009350:	ebfffc7e 	bl	40008550 <number>
40009354:	e50b0014 	str	r0, [fp, #-20]
40009358:	e51b303c 	ldr	r3, [fp, #-60]	; 0x3c
4000935c:	e2833001 	add	r3, r3, #1
40009360:	e50b303c 	str	r3, [fp, #-60]	; 0x3c
40009364:	e51b303c 	ldr	r3, [fp, #-60]	; 0x3c
40009368:	e5d33000 	ldrb	r3, [r3]
4000936c:	e3530000 	cmp	r3, #0
40009370:	1afffdc5 	bne	40008a8c <vsprintf+0x24>
40009374:	e51b3014 	ldr	r3, [fp, #-20]
40009378:	e3a02000 	mov	r2, #0
4000937c:	e5c32000 	strb	r2, [r3]
40009380:	e51b2014 	ldr	r2, [fp, #-20]
40009384:	e51b3038 	ldr	r3, [fp, #-56]	; 0x38
40009388:	e0633002 	rsb	r3, r3, r2
4000938c:	e1a00003 	mov	r0, r3
40009390:	e24bd004 	sub	sp, fp, #4
40009394:	e8bd4800 	pop	{fp, lr}
40009398:	e12fff1e 	bx	lr
4000939c:	40009dc4 	andmi	r9, r0, r4, asr #27

400093a0 <sprintf>:
400093a0:	e92d000e 	push	{r1, r2, r3}
400093a4:	e92d4800 	push	{fp, lr}
400093a8:	e28db004 	add	fp, sp, #4
400093ac:	e24dd00c 	sub	sp, sp, #12
400093b0:	e50b0010 	str	r0, [fp, #-16]
400093b4:	e28b2008 	add	r2, fp, #8
400093b8:	e24b300c 	sub	r3, fp, #12
400093bc:	e5832000 	str	r2, [r3]
400093c0:	e51b300c 	ldr	r3, [fp, #-12]
400093c4:	e51b0010 	ldr	r0, [fp, #-16]
400093c8:	e59b1004 	ldr	r1, [fp, #4]
400093cc:	e1a02003 	mov	r2, r3
400093d0:	ebfffda4 	bl	40008a68 <vsprintf>
400093d4:	e50b0008 	str	r0, [fp, #-8]
400093d8:	e51b3008 	ldr	r3, [fp, #-8]
400093dc:	e1a00003 	mov	r0, r3
400093e0:	e24bd004 	sub	sp, fp, #4
400093e4:	e8bd4800 	pop	{fp, lr}
400093e8:	e28dd00c 	add	sp, sp, #12
400093ec:	e12fff1e 	bx	lr

400093f0 <printf>:
400093f0:	e92d000f 	push	{r0, r1, r2, r3}
400093f4:	e92d4800 	push	{fp, lr}
400093f8:	e28db004 	add	fp, sp, #4
400093fc:	e24dd06c 	sub	sp, sp, #108	; 0x6c
40009400:	e28b2008 	add	r2, fp, #8
40009404:	e24b300c 	sub	r3, fp, #12
40009408:	e5832000 	str	r2, [r3]
4000940c:	e51b300c 	ldr	r3, [fp, #-12]
40009410:	e24b2070 	sub	r2, fp, #112	; 0x70
40009414:	e1a00002 	mov	r0, r2
40009418:	e59b1004 	ldr	r1, [fp, #4]
4000941c:	e1a02003 	mov	r2, r3
40009420:	ebfffd90 	bl	40008a68 <vsprintf>
40009424:	e1a03000 	mov	r3, r0
40009428:	e50b3008 	str	r3, [fp, #-8]
4000942c:	e24b3070 	sub	r3, fp, #112	; 0x70
40009430:	e1a00003 	mov	r0, r3
40009434:	eb000033 	bl	40009508 <puts>
40009438:	e24bd004 	sub	sp, fp, #4
4000943c:	e8bd4800 	pop	{fp, lr}
40009440:	e28dd010 	add	sp, sp, #16
40009444:	e12fff1e 	bx	lr

40009448 <uart_init>:
40009448:	e52db004 	push	{fp}		; (str fp, [sp, #-4]!)
4000944c:	e28db000 	add	fp, sp, #0
40009450:	e59f304c 	ldr	r3, [pc, #76]	; 400094a4 <uart_init+0x5c>
40009454:	e59f2048 	ldr	r2, [pc, #72]	; 400094a4 <uart_init+0x5c>
40009458:	e5922000 	ldr	r2, [r2]
4000945c:	e3c220ff 	bic	r2, r2, #255	; 0xff
40009460:	e3822022 	orr	r2, r2, #34	; 0x22
40009464:	e5832000 	str	r2, [r3]
40009468:	e59f3038 	ldr	r3, [pc, #56]	; 400094a8 <uart_init+0x60>
4000946c:	e3a02003 	mov	r2, #3
40009470:	e5832000 	str	r2, [r3]
40009474:	e59f302c 	ldr	r3, [pc, #44]	; 400094a8 <uart_init+0x60>
40009478:	e3a02005 	mov	r2, #5
4000947c:	e5832004 	str	r2, [r3, #4]
40009480:	e59f3020 	ldr	r3, [pc, #32]	; 400094a8 <uart_init+0x60>
40009484:	e3a02035 	mov	r2, #53	; 0x35
40009488:	e5832028 	str	r2, [r3, #40]	; 0x28
4000948c:	e59f3014 	ldr	r3, [pc, #20]	; 400094a8 <uart_init+0x60>
40009490:	e3a02005 	mov	r2, #5
40009494:	e583202c 	str	r2, [r3, #44]	; 0x2c
40009498:	e28bd000 	add	sp, fp, #0
4000949c:	e8bd0800 	pop	{fp}
400094a0:	e12fff1e 	bx	lr
400094a4:	11400020 	cmpne	r0, r0, lsr #32
400094a8:	13820000 	orrne	r0, r2, #0

400094ac <putc>:
400094ac:	e92d4800 	push	{fp, lr}
400094b0:	e28db004 	add	fp, sp, #4
400094b4:	e24dd004 	sub	sp, sp, #4
400094b8:	e1a03000 	mov	r3, r0
400094bc:	e54b3008 	strb	r3, [fp, #-8]
400094c0:	e1a00000 	nop			; (mov r0, r0)
400094c4:	e59f3038 	ldr	r3, [pc, #56]	; 40009504 <putc+0x58>
400094c8:	e5933010 	ldr	r3, [r3, #16]
400094cc:	e2033002 	and	r3, r3, #2
400094d0:	e3530000 	cmp	r3, #0
400094d4:	0afffffa 	beq	400094c4 <putc+0x18>
400094d8:	e59f3024 	ldr	r3, [pc, #36]	; 40009504 <putc+0x58>
400094dc:	e55b2008 	ldrb	r2, [fp, #-8]
400094e0:	e5832020 	str	r2, [r3, #32]
400094e4:	e55b3008 	ldrb	r3, [fp, #-8]
400094e8:	e353000a 	cmp	r3, #10
400094ec:	1a000001 	bne	400094f8 <putc+0x4c>
400094f0:	e3a0000d 	mov	r0, #13
400094f4:	ebffffec 	bl	400094ac <putc>
400094f8:	e24bd004 	sub	sp, fp, #4
400094fc:	e8bd4800 	pop	{fp, lr}
40009500:	e12fff1e 	bx	lr
40009504:	13820000 	orrne	r0, r2, #0

40009508 <puts>:
40009508:	e92d4800 	push	{fp, lr}
4000950c:	e28db004 	add	fp, sp, #4
40009510:	e24dd004 	sub	sp, sp, #4
40009514:	e50b0008 	str	r0, [fp, #-8]
40009518:	ea000006 	b	40009538 <puts+0x30>
4000951c:	e51b3008 	ldr	r3, [fp, #-8]
40009520:	e5d33000 	ldrb	r3, [r3]
40009524:	e51b2008 	ldr	r2, [fp, #-8]
40009528:	e2822001 	add	r2, r2, #1
4000952c:	e50b2008 	str	r2, [fp, #-8]
40009530:	e1a00003 	mov	r0, r3
40009534:	ebffffdc 	bl	400094ac <putc>
40009538:	e51b3008 	ldr	r3, [fp, #-8]
4000953c:	e5d33000 	ldrb	r3, [r3]
40009540:	e3530000 	cmp	r3, #0
40009544:	1afffff4 	bne	4000951c <puts+0x14>
40009548:	e24bd004 	sub	sp, fp, #4
4000954c:	e8bd4800 	pop	{fp, lr}
40009550:	e12fff1e 	bx	lr

40009554 <init_key>:
40009554:	e52db004 	push	{fp}		; (str fp, [sp, #-4]!)
40009558:	e28db000 	add	fp, sp, #0
4000955c:	e59f3274 	ldr	r3, [pc, #628]	; 400097d8 <init_key+0x284>
40009560:	e59f2270 	ldr	r2, [pc, #624]	; 400097d8 <init_key+0x284>
40009564:	e5922000 	ldr	r2, [r2]
40009568:	e3822c0f 	orr	r2, r2, #3840	; 0xf00
4000956c:	e5832000 	str	r2, [r3]
40009570:	e59f3264 	ldr	r3, [pc, #612]	; 400097dc <init_key+0x288>
40009574:	e59f2260 	ldr	r2, [pc, #608]	; 400097dc <init_key+0x288>
40009578:	e5922000 	ldr	r2, [r2]
4000957c:	e3c22c0f 	bic	r2, r2, #3840	; 0xf00
40009580:	e3822c02 	orr	r2, r2, #512	; 0x200
40009584:	e5832000 	str	r2, [r3]
40009588:	e59f3250 	ldr	r3, [pc, #592]	; 400097e0 <init_key+0x28c>
4000958c:	e59f224c 	ldr	r2, [pc, #588]	; 400097e0 <init_key+0x28c>
40009590:	e5922000 	ldr	r2, [r2]
40009594:	e3822502 	orr	r2, r2, #8388608	; 0x800000
40009598:	e5832000 	str	r2, [r3]
4000959c:	e59f323c 	ldr	r3, [pc, #572]	; 400097e0 <init_key+0x28c>
400095a0:	e59f2238 	ldr	r2, [pc, #568]	; 400097e0 <init_key+0x28c>
400095a4:	e5922000 	ldr	r2, [r2]
400095a8:	e3c22502 	bic	r2, r2, #8388608	; 0x800000
400095ac:	e5832000 	str	r2, [r3]
400095b0:	e59f322c 	ldr	r3, [pc, #556]	; 400097e4 <init_key+0x290>
400095b4:	e59f2228 	ldr	r2, [pc, #552]	; 400097e4 <init_key+0x290>
400095b8:	e5922000 	ldr	r2, [r2]
400095bc:	e3c22004 	bic	r2, r2, #4
400095c0:	e5832000 	str	r2, [r3]
400095c4:	e59f321c 	ldr	r3, [pc, #540]	; 400097e8 <init_key+0x294>
400095c8:	e59f2218 	ldr	r2, [pc, #536]	; 400097e8 <init_key+0x294>
400095cc:	e5922008 	ldr	r2, [r2, #8]
400095d0:	e3c22001 	bic	r2, r2, #1
400095d4:	e5832008 	str	r2, [r3, #8]
400095d8:	e59f320c 	ldr	r3, [pc, #524]	; 400097ec <init_key+0x298>
400095dc:	e3a02001 	mov	r2, #1
400095e0:	e5832008 	str	r2, [r3, #8]
400095e4:	e59f3204 	ldr	r3, [pc, #516]	; 400097f0 <init_key+0x29c>
400095e8:	e59f2200 	ldr	r2, [pc, #512]	; 400097f0 <init_key+0x29c>
400095ec:	e5922040 	ldr	r2, [r2, #64]	; 0x40
400095f0:	e3c220ff 	bic	r2, r2, #255	; 0xff
400095f4:	e3822001 	orr	r2, r2, #1
400095f8:	e5832040 	str	r2, [r3, #64]	; 0x40
400095fc:	e59f31f0 	ldr	r3, [pc, #496]	; 400097f4 <init_key+0x2a0>
40009600:	e59f21ec 	ldr	r2, [pc, #492]	; 400097f4 <init_key+0x2a0>
40009604:	e5922040 	ldr	r2, [r2, #64]	; 0x40
40009608:	e3c220ff 	bic	r2, r2, #255	; 0xff
4000960c:	e3822001 	orr	r2, r2, #1
40009610:	e5832040 	str	r2, [r3, #64]	; 0x40
40009614:	e59f31dc 	ldr	r3, [pc, #476]	; 400097f8 <init_key+0x2a4>
40009618:	e3a02001 	mov	r2, #1
4000961c:	e5832000 	str	r2, [r3]
40009620:	e59f31d4 	ldr	r3, [pc, #468]	; 400097fc <init_key+0x2a8>
40009624:	e3a02001 	mov	r2, #1
40009628:	e5832000 	str	r2, [r3]
4000962c:	e59f31cc 	ldr	r3, [pc, #460]	; 40009800 <init_key+0x2ac>
40009630:	e59f21c8 	ldr	r2, [pc, #456]	; 40009800 <init_key+0x2ac>
40009634:	e5922000 	ldr	r2, [r2]
40009638:	e38220f0 	orr	r2, r2, #240	; 0xf0
4000963c:	e5832000 	str	r2, [r3]
40009640:	e59f31bc 	ldr	r3, [pc, #444]	; 40009804 <init_key+0x2b0>
40009644:	e59f21b8 	ldr	r2, [pc, #440]	; 40009804 <init_key+0x2b0>
40009648:	e5922000 	ldr	r2, [r2]
4000964c:	e3c220f0 	bic	r2, r2, #240	; 0xf0
40009650:	e3822020 	orr	r2, r2, #32
40009654:	e5832000 	str	r2, [r3]
40009658:	e59f31a8 	ldr	r3, [pc, #424]	; 40009808 <init_key+0x2b4>
4000965c:	e59f21a4 	ldr	r2, [pc, #420]	; 40009808 <init_key+0x2b4>
40009660:	e5922000 	ldr	r2, [r2]
40009664:	e3822902 	orr	r2, r2, #32768	; 0x8000
40009668:	e5832000 	str	r2, [r3]
4000966c:	e59f3194 	ldr	r3, [pc, #404]	; 40009808 <init_key+0x2b4>
40009670:	e59f2190 	ldr	r2, [pc, #400]	; 40009808 <init_key+0x2b4>
40009674:	e5922000 	ldr	r2, [r2]
40009678:	e3c22901 	bic	r2, r2, #16384	; 0x4000
4000967c:	e5832000 	str	r2, [r3]
40009680:	e59f3184 	ldr	r3, [pc, #388]	; 4000980c <init_key+0x2b8>
40009684:	e59f2180 	ldr	r2, [pc, #384]	; 4000980c <init_key+0x2b8>
40009688:	e5922000 	ldr	r2, [r2]
4000968c:	e3c22002 	bic	r2, r2, #2
40009690:	e5832000 	str	r2, [r3]
40009694:	e59f314c 	ldr	r3, [pc, #332]	; 400097e8 <init_key+0x294>
40009698:	e59f2148 	ldr	r2, [pc, #328]	; 400097e8 <init_key+0x294>
4000969c:	e5922004 	ldr	r2, [r2, #4]
400096a0:	e3c22402 	bic	r2, r2, #33554432	; 0x2000000
400096a4:	e5832004 	str	r2, [r3, #4]
400096a8:	e59f313c 	ldr	r3, [pc, #316]	; 400097ec <init_key+0x298>
400096ac:	e3a02402 	mov	r2, #33554432	; 0x2000000
400096b0:	e5832004 	str	r2, [r3, #4]
400096b4:	e59f3134 	ldr	r3, [pc, #308]	; 400097f0 <init_key+0x29c>
400096b8:	e59f2130 	ldr	r2, [pc, #304]	; 400097f0 <init_key+0x29c>
400096bc:	e5922038 	ldr	r2, [r2, #56]	; 0x38
400096c0:	e3c22cff 	bic	r2, r2, #65280	; 0xff00
400096c4:	e3822c01 	orr	r2, r2, #256	; 0x100
400096c8:	e5832038 	str	r2, [r3, #56]	; 0x38
400096cc:	e59f3120 	ldr	r3, [pc, #288]	; 400097f4 <init_key+0x2a0>
400096d0:	e59f211c 	ldr	r2, [pc, #284]	; 400097f4 <init_key+0x2a0>
400096d4:	e5922038 	ldr	r2, [r2, #56]	; 0x38
400096d8:	e3c22cff 	bic	r2, r2, #65280	; 0xff00
400096dc:	e3822c01 	orr	r2, r2, #256	; 0x100
400096e0:	e5832038 	str	r2, [r3, #56]	; 0x38
400096e4:	e59f310c 	ldr	r3, [pc, #268]	; 400097f8 <init_key+0x2a4>
400096e8:	e3a02001 	mov	r2, #1
400096ec:	e5832000 	str	r2, [r3]
400096f0:	e59f3104 	ldr	r3, [pc, #260]	; 400097fc <init_key+0x2a8>
400096f4:	e3a02001 	mov	r2, #1
400096f8:	e5832000 	str	r2, [r3]
400096fc:	e59f30fc 	ldr	r3, [pc, #252]	; 40009800 <init_key+0x2ac>
40009700:	e59f20f8 	ldr	r2, [pc, #248]	; 40009800 <init_key+0x2ac>
40009704:	e5922000 	ldr	r2, [r2]
40009708:	e3822c0f 	orr	r2, r2, #3840	; 0xf00
4000970c:	e5832000 	str	r2, [r3]
40009710:	e59f30ec 	ldr	r3, [pc, #236]	; 40009804 <init_key+0x2b0>
40009714:	e59f20e8 	ldr	r2, [pc, #232]	; 40009804 <init_key+0x2b0>
40009718:	e5922000 	ldr	r2, [r2]
4000971c:	e3c22c0f 	bic	r2, r2, #3840	; 0xf00
40009720:	e3822c02 	orr	r2, r2, #512	; 0x200
40009724:	e5832000 	str	r2, [r3]
40009728:	e59f30d8 	ldr	r3, [pc, #216]	; 40009808 <init_key+0x2b4>
4000972c:	e59f20d4 	ldr	r2, [pc, #212]	; 40009808 <init_key+0x2b4>
40009730:	e5922000 	ldr	r2, [r2]
40009734:	e3822502 	orr	r2, r2, #8388608	; 0x800000
40009738:	e5832000 	str	r2, [r3]
4000973c:	e59f30c4 	ldr	r3, [pc, #196]	; 40009808 <init_key+0x2b4>
40009740:	e59f20c0 	ldr	r2, [pc, #192]	; 40009808 <init_key+0x2b4>
40009744:	e5922000 	ldr	r2, [r2]
40009748:	e3c22501 	bic	r2, r2, #4194304	; 0x400000
4000974c:	e5832000 	str	r2, [r3]
40009750:	e59f30b4 	ldr	r3, [pc, #180]	; 4000980c <init_key+0x2b8>
40009754:	e59f20b0 	ldr	r2, [pc, #176]	; 4000980c <init_key+0x2b8>
40009758:	e5922000 	ldr	r2, [r2]
4000975c:	e3c22004 	bic	r2, r2, #4
40009760:	e5832000 	str	r2, [r3]
40009764:	e59f307c 	ldr	r3, [pc, #124]	; 400097e8 <init_key+0x294>
40009768:	e59f2078 	ldr	r2, [pc, #120]	; 400097e8 <init_key+0x294>
4000976c:	e5922004 	ldr	r2, [r2, #4]
40009770:	e3c22301 	bic	r2, r2, #67108864	; 0x4000000
40009774:	e5832004 	str	r2, [r3, #4]
40009778:	e59f306c 	ldr	r3, [pc, #108]	; 400097ec <init_key+0x298>
4000977c:	e3a02301 	mov	r2, #67108864	; 0x4000000
40009780:	e5832004 	str	r2, [r3, #4]
40009784:	e59f3064 	ldr	r3, [pc, #100]	; 400097f0 <init_key+0x29c>
40009788:	e59f2060 	ldr	r2, [pc, #96]	; 400097f0 <init_key+0x29c>
4000978c:	e5922038 	ldr	r2, [r2, #56]	; 0x38
40009790:	e3c228ff 	bic	r2, r2, #16711680	; 0xff0000
40009794:	e3822801 	orr	r2, r2, #65536	; 0x10000
40009798:	e5832038 	str	r2, [r3, #56]	; 0x38
4000979c:	e59f3050 	ldr	r3, [pc, #80]	; 400097f4 <init_key+0x2a0>
400097a0:	e59f204c 	ldr	r2, [pc, #76]	; 400097f4 <init_key+0x2a0>
400097a4:	e5922038 	ldr	r2, [r2, #56]	; 0x38
400097a8:	e3c228ff 	bic	r2, r2, #16711680	; 0xff0000
400097ac:	e3822801 	orr	r2, r2, #65536	; 0x10000
400097b0:	e5832038 	str	r2, [r3, #56]	; 0x38
400097b4:	e59f303c 	ldr	r3, [pc, #60]	; 400097f8 <init_key+0x2a4>
400097b8:	e3a02001 	mov	r2, #1
400097bc:	e5832000 	str	r2, [r3]
400097c0:	e59f3034 	ldr	r3, [pc, #52]	; 400097fc <init_key+0x2a8>
400097c4:	e3a02001 	mov	r2, #1
400097c8:	e5832000 	str	r2, [r3]
400097cc:	e28bd000 	add	sp, fp, #0
400097d0:	e8bd0800 	pop	{fp}
400097d4:	e12fff1e 	bx	lr
400097d8:	11000c60 	tstne	r0, r0, ror #24
400097dc:	11000e0c 	tstne	r0, ip, lsl #28
400097e0:	11000e98 			; <UNDEFINED> instruction: 0x11000e98
400097e4:	11000f0c 	tstne	r0, ip, lsl #30
400097e8:	10490080 	subne	r0, r9, r0, lsl #1
400097ec:	10490100 	subne	r0, r9, r0, lsl #2
400097f0:	10490400 	subne	r0, r9, r0, lsl #8
400097f4:	10490800 	subne	r0, r9, r0, lsl #16
400097f8:	10490000 	subne	r0, r9, r0
400097fc:	10480000 	subne	r0, r8, r0
40009800:	11000c20 	tstne	r0, r0, lsr #24
40009804:	11000e04 	tstne	r0, r4, lsl #28
40009808:	11000e88 	smlabbne	r0, r8, lr, r0
4000980c:	11000f04 	tstne	r0, r4, lsl #30

40009810 <mydelay_ms>:
40009810:	e52db004 	push	{fp}		; (str fp, [sp, #-4]!)
40009814:	e28db000 	add	fp, sp, #0
40009818:	e24dd00c 	sub	sp, sp, #12
4000981c:	e50b000c 	str	r0, [fp, #-12]
40009820:	ea000012 	b	40009870 <mydelay_ms+0x60>
40009824:	e3a03000 	mov	r3, #0
40009828:	e50b3004 	str	r3, [fp, #-4]
4000982c:	ea00000c 	b	40009864 <mydelay_ms+0x54>
40009830:	e3a03000 	mov	r3, #0
40009834:	e50b3008 	str	r3, [fp, #-8]
40009838:	ea000002 	b	40009848 <mydelay_ms+0x38>
4000983c:	e51b3008 	ldr	r3, [fp, #-8]
40009840:	e2833001 	add	r3, r3, #1
40009844:	e50b3008 	str	r3, [fp, #-8]
40009848:	e51b2008 	ldr	r2, [fp, #-8]
4000984c:	e59f3050 	ldr	r3, [pc, #80]	; 400098a4 <mydelay_ms+0x94>
40009850:	e1520003 	cmp	r2, r3
40009854:	dafffff8 	ble	4000983c <mydelay_ms+0x2c>
40009858:	e51b3004 	ldr	r3, [fp, #-4]
4000985c:	e2833001 	add	r3, r3, #1
40009860:	e50b3004 	str	r3, [fp, #-4]
40009864:	e51b3004 	ldr	r3, [fp, #-4]
40009868:	e3530004 	cmp	r3, #4
4000986c:	daffffef 	ble	40009830 <mydelay_ms+0x20>
40009870:	e51b300c 	ldr	r3, [fp, #-12]
40009874:	e3530000 	cmp	r3, #0
40009878:	03a03000 	moveq	r3, #0
4000987c:	13a03001 	movne	r3, #1
40009880:	e20330ff 	and	r3, r3, #255	; 0xff
40009884:	e51b200c 	ldr	r2, [fp, #-12]
40009888:	e2422001 	sub	r2, r2, #1
4000988c:	e50b200c 	str	r2, [fp, #-12]
40009890:	e3530000 	cmp	r3, #0
40009894:	1affffe2 	bne	40009824 <mydelay_ms+0x14>
40009898:	e28bd000 	add	sp, fp, #0
4000989c:	e8bd0800 	pop	{fp}
400098a0:	e12fff1e 	bx	lr
400098a4:	00000201 	andeq	r0, r0, r1, lsl #4

400098a8 <do_irq>:
400098a8:	e92d4800 	push	{fp, lr}
400098ac:	e28db004 	add	fp, sp, #4
400098b0:	e24dd004 	sub	sp, sp, #4
400098b4:	e59f31b0 	ldr	r3, [pc, #432]	; 40009a6c <do_irq+0x1c4>
400098b8:	e593300c 	ldr	r3, [r3, #12]
400098bc:	e1a03b03 	lsl	r3, r3, #22
400098c0:	e1a03b23 	lsr	r3, r3, #22
400098c4:	e50b3008 	str	r3, [fp, #-8]
400098c8:	e59f01a0 	ldr	r0, [pc, #416]	; 40009a70 <do_irq+0x1c8>
400098cc:	e51b1008 	ldr	r1, [fp, #-8]
400098d0:	ebfffec6 	bl	400093f0 <printf>
400098d4:	e51b3008 	ldr	r3, [fp, #-8]
400098d8:	e2433039 	sub	r3, r3, #57	; 0x39
400098dc:	e3530017 	cmp	r3, #23
400098e0:	979ff103 	ldrls	pc, [pc, r3, lsl #2]
400098e4:	ea000055 	b	40009a40 <do_irq+0x198>
400098e8:	4000997c 	andmi	r9, r0, ip, ror r9
400098ec:	40009948 	andmi	r9, r0, r8, asr #18
400098f0:	40009a40 	andmi	r9, r0, r0, asr #20
400098f4:	40009a40 	andmi	r9, r0, r0, asr #20
400098f8:	40009a40 	andmi	r9, r0, r0, asr #20
400098fc:	40009a40 	andmi	r9, r0, r0, asr #20
40009900:	40009a40 	andmi	r9, r0, r0, asr #20
40009904:	40009998 	mulmi	r0, r8, r9
40009908:	40009a40 	andmi	r9, r0, r0, asr #20
4000990c:	40009a40 	andmi	r9, r0, r0, asr #20
40009910:	40009a40 	andmi	r9, r0, r0, asr #20
40009914:	40009a40 	andmi	r9, r0, r0, asr #20
40009918:	40009a40 	andmi	r9, r0, r0, asr #20
4000991c:	40009a40 	andmi	r9, r0, r0, asr #20
40009920:	40009a40 	andmi	r9, r0, r0, asr #20
40009924:	40009a40 	andmi	r9, r0, r0, asr #20
40009928:	400099b4 			; <UNDEFINED> instruction: 0x400099b4
4000992c:	40009a40 	andmi	r9, r0, r0, asr #20
40009930:	40009a40 	andmi	r9, r0, r0, asr #20
40009934:	40009a40 	andmi	r9, r0, r0, asr #20
40009938:	40009a40 	andmi	r9, r0, r0, asr #20
4000993c:	40009a40 	andmi	r9, r0, r0, asr #20
40009940:	40009a40 	andmi	r9, r0, r0, asr #20
40009944:	40009a38 	andmi	r9, r0, r8, lsr sl
40009948:	e3a00014 	mov	r0, #20
4000994c:	ebffffaf 	bl	40009810 <mydelay_ms>
40009950:	e59f311c 	ldr	r3, [pc, #284]	; 40009a74 <do_irq+0x1cc>
40009954:	e5933004 	ldr	r3, [r3, #4]
40009958:	e2033004 	and	r3, r3, #4
4000995c:	e3530000 	cmp	r3, #0
40009960:	1a000001 	bne	4000996c <do_irq+0xc4>
40009964:	e59f010c 	ldr	r0, [pc, #268]	; 40009a78 <do_irq+0x1d0>
40009968:	ebfffea0 	bl	400093f0 <printf>
4000996c:	e59f3108 	ldr	r3, [pc, #264]	; 40009a7c <do_irq+0x1d4>
40009970:	e3a02004 	mov	r2, #4
40009974:	e5832000 	str	r2, [r3]
40009978:	ea000030 	b	40009a40 <do_irq+0x198>
4000997c:	e3a00028 	mov	r0, #40	; 0x28
40009980:	e3a01002 	mov	r1, #2
40009984:	eb0000d2 	bl	40009cd4 <start_timer4>
40009988:	e59f30ec 	ldr	r3, [pc, #236]	; 40009a7c <do_irq+0x1d4>
4000998c:	e3a02002 	mov	r2, #2
40009990:	e5832000 	str	r2, [r3]
40009994:	ea000029 	b	40009a40 <do_irq+0x198>
40009998:	e3a00028 	mov	r0, #40	; 0x28
4000999c:	e3a01004 	mov	r1, #4
400099a0:	eb0000cb 	bl	40009cd4 <start_timer4>
400099a4:	e59f30d4 	ldr	r3, [pc, #212]	; 40009a80 <do_irq+0x1d8>
400099a8:	e3a02004 	mov	r2, #4
400099ac:	e5832000 	str	r2, [r3]
400099b0:	ea000022 	b	40009a40 <do_irq+0x198>
400099b4:	e59f00c8 	ldr	r0, [pc, #200]	; 40009a84 <do_irq+0x1dc>
400099b8:	ebfffe8c 	bl	400093f0 <printf>
400099bc:	e59f30c4 	ldr	r3, [pc, #196]	; 40009a88 <do_irq+0x1e0>
400099c0:	e5933000 	ldr	r3, [r3]
400099c4:	e3530002 	cmp	r3, #2
400099c8:	0a000002 	beq	400099d8 <do_irq+0x130>
400099cc:	e3530004 	cmp	r3, #4
400099d0:	0a000008 	beq	400099f8 <do_irq+0x150>
400099d4:	ea000010 	b	40009a1c <do_irq+0x174>
400099d8:	e59f3094 	ldr	r3, [pc, #148]	; 40009a74 <do_irq+0x1cc>
400099dc:	e5933004 	ldr	r3, [r3, #4]
400099e0:	e2033002 	and	r3, r3, #2
400099e4:	e3530000 	cmp	r3, #0
400099e8:	1a00000a 	bne	40009a18 <do_irq+0x170>
400099ec:	e59f0098 	ldr	r0, [pc, #152]	; 40009a8c <do_irq+0x1e4>
400099f0:	ebfffe7e 	bl	400093f0 <printf>
400099f4:	ea000007 	b	40009a18 <do_irq+0x170>
400099f8:	e59f3090 	ldr	r3, [pc, #144]	; 40009a90 <do_irq+0x1e8>
400099fc:	e5933004 	ldr	r3, [r3, #4]
40009a00:	e2033004 	and	r3, r3, #4
40009a04:	e3530000 	cmp	r3, #0
40009a08:	1a000003 	bne	40009a1c <do_irq+0x174>
40009a0c:	e59f0080 	ldr	r0, [pc, #128]	; 40009a94 <do_irq+0x1ec>
40009a10:	ebfffe76 	bl	400093f0 <printf>
40009a14:	ea000000 	b	40009a1c <do_irq+0x174>
40009a18:	e1a00000 	nop			; (mov r0, r0)
40009a1c:	e59f3074 	ldr	r3, [pc, #116]	; 40009a98 <do_irq+0x1f0>
40009a20:	e59f2070 	ldr	r2, [pc, #112]	; 40009a98 <do_irq+0x1f0>
40009a24:	e5922044 	ldr	r2, [r2, #68]	; 0x44
40009a28:	e3c22e3e 	bic	r2, r2, #992	; 0x3e0
40009a2c:	e3822c02 	orr	r2, r2, #512	; 0x200
40009a30:	e5832044 	str	r2, [r3, #68]	; 0x44
40009a34:	ea000001 	b	40009a40 <do_irq+0x198>
40009a38:	e59f005c 	ldr	r0, [pc, #92]	; 40009a9c <do_irq+0x1f4>
40009a3c:	ebfffe6b 	bl	400093f0 <printf>
40009a40:	e59f2024 	ldr	r2, [pc, #36]	; 40009a6c <do_irq+0x1c4>
40009a44:	e59f3020 	ldr	r3, [pc, #32]	; 40009a6c <do_irq+0x1c4>
40009a48:	e5933010 	ldr	r3, [r3, #16]
40009a4c:	e3c33fff 	bic	r3, r3, #1020	; 0x3fc
40009a50:	e3c33003 	bic	r3, r3, #3
40009a54:	e51b1008 	ldr	r1, [fp, #-8]
40009a58:	e1833001 	orr	r3, r3, r1
40009a5c:	e5823010 	str	r3, [r2, #16]
40009a60:	e24bd004 	sub	sp, fp, #4
40009a64:	e8bd4800 	pop	{fp, lr}
40009a68:	e12fff1e 	bx	lr
40009a6c:	10480000 	subne	r0, r8, r0
40009a70:	40009dcc 	andmi	r9, r0, ip, asr #27
40009a74:	11000c20 	tstne	r0, r0, lsr #24
40009a78:	40009dd4 	ldrdmi	r9, [r0], -r4
40009a7c:	11000f44 	tstne	r0, r4, asr #30
40009a80:	11000f4c 	tstne	r0, ip, asr #30
40009a84:	40009de8 	andmi	r9, r0, r8, ror #27
40009a88:	4000a734 	andmi	sl, r0, r4, lsr r7
40009a8c:	40009df0 	strdmi	r9, [r0], -r0
40009a90:	11000c60 	tstne	r0, r0, ror #24
40009a94:	40009e04 	andmi	r9, r0, r4, lsl #28
40009a98:	139d0000 	orrsne	r0, sp, #0
40009a9c:	40009e1c 	andmi	r9, r0, ip, lsl lr

40009aa0 <main>:
40009aa0:	e92d4800 	push	{fp, lr}
40009aa4:	e28db004 	add	fp, sp, #4
40009aa8:	ebfffe66 	bl	40009448 <uart_init>
40009aac:	e59f0114 	ldr	r0, [pc, #276]	; 40009bc8 <main+0x128>
40009ab0:	ebfffe4e 	bl	400093f0 <printf>
40009ab4:	eb000049 	bl	40009be0 <init_timer>
40009ab8:	ebfffea5 	bl	40009554 <init_key>
40009abc:	e59f3108 	ldr	r3, [pc, #264]	; 40009bcc <main+0x12c>
40009ac0:	e59f2104 	ldr	r2, [pc, #260]	; 40009bcc <main+0x12c>
40009ac4:	e5922000 	ldr	r2, [r2]
40009ac8:	e3c220ff 	bic	r2, r2, #255	; 0xff
40009acc:	e3822063 	orr	r2, r2, #99	; 0x63
40009ad0:	e5832000 	str	r2, [r3]
40009ad4:	e59f30f0 	ldr	r3, [pc, #240]	; 40009bcc <main+0x12c>
40009ad8:	e59f20ec 	ldr	r2, [pc, #236]	; 40009bcc <main+0x12c>
40009adc:	e5922004 	ldr	r2, [r2, #4]
40009ae0:	e3c2200f 	bic	r2, r2, #15
40009ae4:	e3822002 	orr	r2, r2, #2
40009ae8:	e5832004 	str	r2, [r3, #4]
40009aec:	e59f30d8 	ldr	r3, [pc, #216]	; 40009bcc <main+0x12c>
40009af0:	e59f20d8 	ldr	r2, [pc, #216]	; 40009bd0 <main+0x130>
40009af4:	e583200c 	str	r2, [r3, #12]
40009af8:	e59f30cc 	ldr	r3, [pc, #204]	; 40009bcc <main+0x12c>
40009afc:	e3a020ef 	mov	r2, #239	; 0xef
40009b00:	e5832010 	str	r2, [r3, #16]
40009b04:	e59f30c0 	ldr	r3, [pc, #192]	; 40009bcc <main+0x12c>
40009b08:	e59f20bc 	ldr	r2, [pc, #188]	; 40009bcc <main+0x12c>
40009b0c:	e5922008 	ldr	r2, [r2, #8]
40009b10:	e3c220ff 	bic	r2, r2, #255	; 0xff
40009b14:	e382200a 	orr	r2, r2, #10
40009b18:	e5832008 	str	r2, [r3, #8]
40009b1c:	e59f30a8 	ldr	r3, [pc, #168]	; 40009bcc <main+0x12c>
40009b20:	e59f20a4 	ldr	r2, [pc, #164]	; 40009bcc <main+0x12c>
40009b24:	e5922008 	ldr	r2, [r2, #8]
40009b28:	e3c220ff 	bic	r2, r2, #255	; 0xff
40009b2c:	e3822008 	orr	r2, r2, #8
40009b30:	e5832008 	str	r2, [r3, #8]
40009b34:	e59f3090 	ldr	r3, [pc, #144]	; 40009bcc <main+0x12c>
40009b38:	e59f208c 	ldr	r2, [pc, #140]	; 40009bcc <main+0x12c>
40009b3c:	e5922008 	ldr	r2, [r2, #8]
40009b40:	e3c220ff 	bic	r2, r2, #255	; 0xff
40009b44:	e3822009 	orr	r2, r2, #9
40009b48:	e5832008 	str	r2, [r3, #8]
40009b4c:	e59f3080 	ldr	r3, [pc, #128]	; 40009bd4 <main+0x134>
40009b50:	e59f207c 	ldr	r2, [pc, #124]	; 40009bd4 <main+0x134>
40009b54:	e5922000 	ldr	r2, [r2]
40009b58:	e3c2200f 	bic	r2, r2, #15
40009b5c:	e3822002 	orr	r2, r2, #2
40009b60:	e5832000 	str	r2, [r3]
40009b64:	e59f3060 	ldr	r3, [pc, #96]	; 40009bcc <main+0x12c>
40009b68:	e59f2060 	ldr	r2, [pc, #96]	; 40009bd0 <main+0x130>
40009b6c:	e583200c 	str	r2, [r3, #12]
40009b70:	e59f3054 	ldr	r3, [pc, #84]	; 40009bcc <main+0x12c>
40009b74:	e3a020ef 	mov	r2, #239	; 0xef
40009b78:	e5832010 	str	r2, [r3, #16]
40009b7c:	e3a00f7d 	mov	r0, #500	; 0x1f4
40009b80:	ebffff22 	bl	40009810 <mydelay_ms>
40009b84:	e59f3040 	ldr	r3, [pc, #64]	; 40009bcc <main+0x12c>
40009b88:	e59f2048 	ldr	r2, [pc, #72]	; 40009bd8 <main+0x138>
40009b8c:	e583200c 	str	r2, [r3, #12]
40009b90:	e59f3034 	ldr	r3, [pc, #52]	; 40009bcc <main+0x12c>
40009b94:	e3a020d5 	mov	r2, #213	; 0xd5
40009b98:	e5832010 	str	r2, [r3, #16]
40009b9c:	e3a00f7d 	mov	r0, #500	; 0x1f4
40009ba0:	ebffff1a 	bl	40009810 <mydelay_ms>
40009ba4:	e59f3020 	ldr	r3, [pc, #32]	; 40009bcc <main+0x12c>
40009ba8:	e59f202c 	ldr	r2, [pc, #44]	; 40009bdc <main+0x13c>
40009bac:	e583200c 	str	r2, [r3, #12]
40009bb0:	e59f3014 	ldr	r3, [pc, #20]	; 40009bcc <main+0x12c>
40009bb4:	e3a020bd 	mov	r2, #189	; 0xbd
40009bb8:	e5832010 	str	r2, [r3, #16]
40009bbc:	e3a00f7d 	mov	r0, #500	; 0x1f4
40009bc0:	ebffff12 	bl	40009810 <mydelay_ms>
40009bc4:	eaffffe6 	b	40009b64 <main+0xc4>
40009bc8:	40009e24 	andmi	r9, r0, r4, lsr #28
40009bcc:	139d0000 	orrsne	r0, sp, #0
40009bd0:	000001dd 	ldrdeq	r0, [r0], -sp
40009bd4:	114000a0 	smlaltbne	r0, r0, r0, r0	; <UNPREDICTABLE>
40009bd8:	000001a9 	andeq	r0, r0, r9, lsr #3
40009bdc:	0000017a 	andeq	r0, r0, sl, ror r1

40009be0 <init_timer>:
40009be0:	e52db004 	push	{fp}		; (str fp, [sp, #-4]!)
40009be4:	e28db000 	add	fp, sp, #0
40009be8:	e59f30c8 	ldr	r3, [pc, #200]	; 40009cb8 <init_timer+0xd8>
40009bec:	e59f20c4 	ldr	r2, [pc, #196]	; 40009cb8 <init_timer+0xd8>
40009bf0:	e5922000 	ldr	r2, [r2]
40009bf4:	e3c22cff 	bic	r2, r2, #65280	; 0xff00
40009bf8:	e3822c63 	orr	r2, r2, #25344	; 0x6300
40009bfc:	e5832000 	str	r2, [r3]
40009c00:	e59f30b0 	ldr	r3, [pc, #176]	; 40009cb8 <init_timer+0xd8>
40009c04:	e59f20ac 	ldr	r2, [pc, #172]	; 40009cb8 <init_timer+0xd8>
40009c08:	e5922004 	ldr	r2, [r2, #4]
40009c0c:	e3c2280f 	bic	r2, r2, #983040	; 0xf0000
40009c10:	e3822802 	orr	r2, r2, #131072	; 0x20000
40009c14:	e5832004 	str	r2, [r3, #4]
40009c18:	e59f3098 	ldr	r3, [pc, #152]	; 40009cb8 <init_timer+0xd8>
40009c1c:	e59f2094 	ldr	r2, [pc, #148]	; 40009cb8 <init_timer+0xd8>
40009c20:	e5922008 	ldr	r2, [r2, #8]
40009c24:	e3c2260f 	bic	r2, r2, #15728640	; 0xf00000
40009c28:	e5832008 	str	r2, [r3, #8]
40009c2c:	e59f3084 	ldr	r3, [pc, #132]	; 40009cb8 <init_timer+0xd8>
40009c30:	e59f2080 	ldr	r2, [pc, #128]	; 40009cb8 <init_timer+0xd8>
40009c34:	e5922044 	ldr	r2, [r2, #68]	; 0x44
40009c38:	e3c22e3f 	bic	r2, r2, #1008	; 0x3f0
40009c3c:	e3822010 	orr	r2, r2, #16
40009c40:	e5832044 	str	r2, [r3, #68]	; 0x44
40009c44:	e59f3070 	ldr	r3, [pc, #112]	; 40009cbc <init_timer+0xdc>
40009c48:	e59f206c 	ldr	r2, [pc, #108]	; 40009cbc <init_timer+0xdc>
40009c4c:	e5922008 	ldr	r2, [r2, #8]
40009c50:	e3c22c02 	bic	r2, r2, #512	; 0x200
40009c54:	e5832008 	str	r2, [r3, #8]
40009c58:	e59f3060 	ldr	r3, [pc, #96]	; 40009cc0 <init_timer+0xe0>
40009c5c:	e3a02c02 	mov	r2, #512	; 0x200
40009c60:	e5832008 	str	r2, [r3, #8]
40009c64:	e59f3058 	ldr	r3, [pc, #88]	; 40009cc4 <init_timer+0xe4>
40009c68:	e59f2054 	ldr	r2, [pc, #84]	; 40009cc4 <init_timer+0xe4>
40009c6c:	e5922048 	ldr	r2, [r2, #72]	; 0x48
40009c70:	e3c22cff 	bic	r2, r2, #65280	; 0xff00
40009c74:	e3822c01 	orr	r2, r2, #256	; 0x100
40009c78:	e5832048 	str	r2, [r3, #72]	; 0x48
40009c7c:	e59f3044 	ldr	r3, [pc, #68]	; 40009cc8 <init_timer+0xe8>
40009c80:	e59f2040 	ldr	r2, [pc, #64]	; 40009cc8 <init_timer+0xe8>
40009c84:	e5922048 	ldr	r2, [r2, #72]	; 0x48
40009c88:	e3c22cff 	bic	r2, r2, #65280	; 0xff00
40009c8c:	e3822c01 	orr	r2, r2, #256	; 0x100
40009c90:	e5832048 	str	r2, [r3, #72]	; 0x48
40009c94:	e59f3030 	ldr	r3, [pc, #48]	; 40009ccc <init_timer+0xec>
40009c98:	e3a02001 	mov	r2, #1
40009c9c:	e5832000 	str	r2, [r3]
40009ca0:	e59f3028 	ldr	r3, [pc, #40]	; 40009cd0 <init_timer+0xf0>
40009ca4:	e3a02001 	mov	r2, #1
40009ca8:	e5832000 	str	r2, [r3]
40009cac:	e28bd000 	add	sp, fp, #0
40009cb0:	e8bd0800 	pop	{fp}
40009cb4:	e12fff1e 	bx	lr
40009cb8:	139d0000 	orrsne	r0, sp, #0
40009cbc:	10490080 	subne	r0, r9, r0, lsl #1
40009cc0:	10490100 	subne	r0, r9, r0, lsl #2
40009cc4:	10490400 	subne	r0, r9, r0, lsl #8
40009cc8:	10490800 	subne	r0, r9, r0, lsl #16
40009ccc:	10490000 	subne	r0, r9, r0
40009cd0:	10480000 	subne	r0, r8, r0

40009cd4 <start_timer4>:
40009cd4:	e52db004 	push	{fp}		; (str fp, [sp, #-4]!)
40009cd8:	e28db000 	add	fp, sp, #0
40009cdc:	e24dd008 	sub	sp, sp, #8
40009ce0:	e50b0004 	str	r0, [fp, #-4]
40009ce4:	e50b1008 	str	r1, [fp, #-8]
40009ce8:	e59f307c 	ldr	r3, [pc, #124]	; 40009d6c <start_timer4+0x98>
40009cec:	e51b2008 	ldr	r2, [fp, #-8]
40009cf0:	e5832000 	str	r2, [r3]
40009cf4:	e59f1074 	ldr	r1, [pc, #116]	; 40009d70 <start_timer4+0x9c>
40009cf8:	e51b2004 	ldr	r2, [fp, #-4]
40009cfc:	e1a03002 	mov	r3, r2
40009d00:	e1a03283 	lsl	r3, r3, #5
40009d04:	e0623003 	rsb	r3, r2, r3
40009d08:	e1a03103 	lsl	r3, r3, #2
40009d0c:	e0833002 	add	r3, r3, r2
40009d10:	e1a03083 	lsl	r3, r3, #1
40009d14:	e581303c 	str	r3, [r1, #60]	; 0x3c
40009d18:	e59f3050 	ldr	r3, [pc, #80]	; 40009d70 <start_timer4+0x9c>
40009d1c:	e59f204c 	ldr	r2, [pc, #76]	; 40009d70 <start_timer4+0x9c>
40009d20:	e5922008 	ldr	r2, [r2, #8]
40009d24:	e3c2260f 	bic	r2, r2, #15728640	; 0xf00000
40009d28:	e3822606 	orr	r2, r2, #6291456	; 0x600000
40009d2c:	e5832008 	str	r2, [r3, #8]
40009d30:	e59f3038 	ldr	r3, [pc, #56]	; 40009d70 <start_timer4+0x9c>
40009d34:	e59f2034 	ldr	r2, [pc, #52]	; 40009d70 <start_timer4+0x9c>
40009d38:	e5922008 	ldr	r2, [r2, #8]
40009d3c:	e3c2260f 	bic	r2, r2, #15728640	; 0xf00000
40009d40:	e3822501 	orr	r2, r2, #4194304	; 0x400000
40009d44:	e5832008 	str	r2, [r3, #8]
40009d48:	e59f3020 	ldr	r3, [pc, #32]	; 40009d70 <start_timer4+0x9c>
40009d4c:	e59f201c 	ldr	r2, [pc, #28]	; 40009d70 <start_timer4+0x9c>
40009d50:	e5922008 	ldr	r2, [r2, #8]
40009d54:	e3c2260f 	bic	r2, r2, #15728640	; 0xf00000
40009d58:	e3822601 	orr	r2, r2, #1048576	; 0x100000
40009d5c:	e5832008 	str	r2, [r3, #8]
40009d60:	e28bd000 	add	sp, fp, #0
40009d64:	e8bd0800 	pop	{fp}
40009d68:	e12fff1e 	bx	lr
40009d6c:	4000a734 	andmi	sl, r0, r4, lsr r7
40009d70:	139d0000 	orrsne	r0, sp, #0

Disassembly of section .rodata:

40009d74 <.rodata>:
40009d74:	33323130 	teqcc	r2, #12
40009d78:	37363534 			; <UNDEFINED> instruction: 0x37363534
40009d7c:	62613938 	rsbvs	r3, r1, #917504	; 0xe0000
40009d80:	66656463 	strbtvs	r6, [r5], -r3, ror #8
40009d84:	6a696867 	bvs	41a63f28 <key_number+0x1a597f4>
40009d88:	6e6d6c6b 	cdpvs	12, 6, cr6, cr13, cr11, {3}
40009d8c:	7271706f 	rsbsvc	r7, r1, #111	; 0x6f
40009d90:	76757473 			; <UNDEFINED> instruction: 0x76757473
40009d94:	7a797877 	bvc	41e67f78 <key_number+0x1e5d844>
40009d98:	00000000 	andeq	r0, r0, r0
40009d9c:	33323130 	teqcc	r2, #12
40009da0:	37363534 			; <UNDEFINED> instruction: 0x37363534
40009da4:	42413938 	submi	r3, r1, #917504	; 0xe0000
40009da8:	46454443 	strbmi	r4, [r5], -r3, asr #8
40009dac:	4a494847 	bmi	4125bed0 <key_number+0x125179c>
40009db0:	4e4d4c4b 	cdpmi	12, 4, cr4, cr13, cr11, {2}
40009db4:	5251504f 	subspl	r5, r1, #79	; 0x4f
40009db8:	56555453 			; <UNDEFINED> instruction: 0x56555453
40009dbc:	5a595857 	bpl	4165ff20 <key_number+0x16557ec>
40009dc0:	00000000 	andeq	r0, r0, r0
40009dc4:	4c554e3c 	mrrcmi	14, 3, r4, r5, cr12
40009dc8:	00003e4c 	andeq	r3, r0, ip, asr #28
40009dcc:	3a717269 	bcc	41c66778 <key_number+0x1c5c044>
40009dd0:	000a6425 	andeq	r6, sl, r5, lsr #8
40009dd4:	2d2d2d2d 	stccs	13, cr2, [sp, #-180]!	; 0xffffff4c
40009dd8:	2d2d2d2d 	stccs	13, cr2, [sp, #-180]!	; 0xffffff4c
40009ddc:	2d2d2d2d 	stccs	13, cr2, [sp, #-180]!	; 0xffffff4c
40009de0:	79656b3e 	stmdbvc	r5!, {r1, r2, r3, r4, r5, r8, r9, fp, sp, lr}^
40009de4:	00000a33 	andeq	r0, r0, r3, lsr sl
40009de8:	656d6974 	strbvs	r6, [sp, #-2420]!	; 0x974
40009dec:	000a3472 	andeq	r3, sl, r2, ror r4
40009df0:	2d2d2d2d 	stccs	13, cr2, [sp, #-180]!	; 0xffffff4c
40009df4:	2d2d2d2d 	stccs	13, cr2, [sp, #-180]!	; 0xffffff4c
40009df8:	2d2d2d2d 	stccs	13, cr2, [sp, #-180]!	; 0xffffff4c
40009dfc:	79656b3e 	stmdbvc	r5!, {r1, r2, r3, r4, r5, r8, r9, fp, sp, lr}^
40009e00:	00000a32 	andeq	r0, r0, r2, lsr sl
40009e04:	2d2d2d2d 	stccs	13, cr2, [sp, #-180]!	; 0xffffff4c
40009e08:	2d2d2d2d 	stccs	13, cr2, [sp, #-180]!	; 0xffffff4c
40009e0c:	2d2d2d2d 	stccs	13, cr2, [sp, #-180]!	; 0xffffff4c
40009e10:	2d2d2d2d 	stccs	13, cr2, [sp, #-180]!	; 0xffffff4c
40009e14:	656b3e2d 	strbvs	r3, [fp, #-3629]!	; 0xe2d
40009e18:	000a3479 	andeq	r3, sl, r9, ror r4
40009e1c:	3f79656b 	svccc	0x0079656b
40009e20:	0000000a 	andeq	r0, r0, sl
40009e24:	6c6c6568 	cfstr64vs	mvdx6, [ip], #-416	; 0xfffffe60
40009e28:	6f77206f 	svcvs	0x0077206f
40009e2c:	21646c72 	smccs	18114	; 0x46c2
40009e30:	0000000a 	andeq	r0, r0, sl

Disassembly of section .data:

40009e34 <stack>:
	...

4000a634 <_ctype>:
4000a634:	08080808 	stmdaeq	r8, {r3, fp}
4000a638:	08080808 	stmdaeq	r8, {r3, fp}
4000a63c:	28282808 	stmdacs	r8!, {r3, fp, sp}
4000a640:	08082828 	stmdaeq	r8, {r3, r5, fp, sp}
4000a644:	08080808 	stmdaeq	r8, {r3, fp}
4000a648:	08080808 	stmdaeq	r8, {r3, fp}
4000a64c:	08080808 	stmdaeq	r8, {r3, fp}
4000a650:	08080808 	stmdaeq	r8, {r3, fp}
4000a654:	101010a0 	andsne	r1, r0, r0, lsr #1
4000a658:	10101010 	andsne	r1, r0, r0, lsl r0
4000a65c:	10101010 	andsne	r1, r0, r0, lsl r0
4000a660:	10101010 	andsne	r1, r0, r0, lsl r0
4000a664:	04040404 	streq	r0, [r4], #-1028	; 0x404
4000a668:	04040404 	streq	r0, [r4], #-1028	; 0x404
4000a66c:	10100404 	andsne	r0, r0, r4, lsl #8
4000a670:	10101010 	andsne	r1, r0, r0, lsl r0
4000a674:	41414110 	cmpmi	r1, r0, lsl r1
4000a678:	01414141 	cmpeq	r1, r1, asr #2
4000a67c:	01010101 	tsteq	r1, r1, lsl #2
4000a680:	01010101 	tsteq	r1, r1, lsl #2
4000a684:	01010101 	tsteq	r1, r1, lsl #2
4000a688:	01010101 	tsteq	r1, r1, lsl #2
4000a68c:	10010101 	andne	r0, r1, r1, lsl #2
4000a690:	10101010 	andsne	r1, r0, r0, lsl r0
4000a694:	42424210 	submi	r4, r2, #1
4000a698:	02424242 	subeq	r4, r2, #536870916	; 0x20000004
4000a69c:	02020202 	andeq	r0, r2, #536870912	; 0x20000000
4000a6a0:	02020202 	andeq	r0, r2, #536870912	; 0x20000000
4000a6a4:	02020202 	andeq	r0, r2, #536870912	; 0x20000000
4000a6a8:	02020202 	andeq	r0, r2, #536870912	; 0x20000000
4000a6ac:	10020202 	andne	r0, r2, r2, lsl #4
4000a6b0:	08101010 	ldmdaeq	r0, {r4, ip}
	...
4000a6d4:	101010a0 	andsne	r1, r0, r0, lsr #1
4000a6d8:	10101010 	andsne	r1, r0, r0, lsl r0
4000a6dc:	10101010 	andsne	r1, r0, r0, lsl r0
4000a6e0:	10101010 	andsne	r1, r0, r0, lsl r0
4000a6e4:	10101010 	andsne	r1, r0, r0, lsl r0
4000a6e8:	10101010 	andsne	r1, r0, r0, lsl r0
4000a6ec:	10101010 	andsne	r1, r0, r0, lsl r0
4000a6f0:	10101010 	andsne	r1, r0, r0, lsl r0
4000a6f4:	01010101 	tsteq	r1, r1, lsl #2
4000a6f8:	01010101 	tsteq	r1, r1, lsl #2
4000a6fc:	01010101 	tsteq	r1, r1, lsl #2
4000a700:	01010101 	tsteq	r1, r1, lsl #2
4000a704:	01010101 	tsteq	r1, r1, lsl #2
4000a708:	10010101 	andne	r0, r1, r1, lsl #2
4000a70c:	01010101 	tsteq	r1, r1, lsl #2
4000a710:	02010101 	andeq	r0, r1, #1073741824	; 0x40000000
4000a714:	02020202 	andeq	r0, r2, #536870912	; 0x20000000
4000a718:	02020202 	andeq	r0, r2, #536870912	; 0x20000000
4000a71c:	02020202 	andeq	r0, r2, #536870912	; 0x20000000
4000a720:	02020202 	andeq	r0, r2, #536870912	; 0x20000000
4000a724:	02020202 	andeq	r0, r2, #536870912	; 0x20000000
4000a728:	10020202 	andne	r0, r2, r2, lsl #4
4000a72c:	02020202 	andeq	r0, r2, #536870912	; 0x20000000
4000a730:	02020202 	andeq	r0, r2, #536870912	; 0x20000000

Disassembly of section .bss:

4000a734 <key_number>:
4000a734:	00000000 	andeq	r0, r0, r0

Disassembly of section .ARM.attributes:

00000000 <.ARM.attributes>:
   0:	00000f41 	andeq	r0, r0, r1, asr #30
   4:	61656100 	cmnvs	r5, r0, lsl #2
   8:	01006962 	tsteq	r0, r2, ror #18
   c:	00000005 	andeq	r0, r0, r5

Disassembly of section .comment:

00000000 <.comment>:
   0:	3a434347 	bcc	10d0d24 <_start-0x3ef372dc>
   4:	4e472820 	cdpmi	8, 4, cr2, cr7, cr0, {1}
   8:	34202955 	strtcc	r2, [r0], #-2389	; 0x955
   c:	322e362e 	eorcc	r3, lr, #48234496	; 0x2e00000
	...

Disassembly of section .debug_line:

00000000 <.debug_line>:
   0:	00000070 	andeq	r0, r0, r0, ror r0
   4:	00240002 	eoreq	r0, r4, r2
   8:	01020000 	mrseq	r0, (UNDEF: 2)
   c:	000d0efb 	strdeq	r0, [sp], -fp
  10:	01010101 	tsteq	r1, r1, lsl #2
  14:	01000000 	mrseq	r0, (UNDEF: 0)
  18:	73010000 	movwvc	r0, #4096	; 0x1000
  1c:	74726174 	ldrbtvc	r6, [r2], #-372	; 0x174
  20:	74730000 	ldrbtvc	r0, [r3]
  24:	2e747261 	cdpcs	2, 7, cr7, cr4, cr1, {3}
  28:	00010053 	andeq	r0, r1, r3, asr r0
  2c:	05000000 	streq	r0, [r0]
  30:	00800002 	addeq	r0, r0, r2
  34:	2f2f1540 	svccs	0x002f1540
  38:	2f2f2f2f 	svccs	0x002f2f2f
  3c:	f20f032f 	vcgt.s8	d0, d15, d31
  40:	2f2f302f 	svccs	0x002f302f
  44:	342f302f 	strtcc	r3, [pc], #-47	; 4c <_start-0x40007fb4>
  48:	2f322f2f 	svccs	0x00322f2f
  4c:	2f2f2f33 	svccs	0x002f2f33
  50:	342f2f2f 	strtcc	r2, [pc], #-3887	; 58 <_start-0x40007fa8>
  54:	2f302f31 	svccs	0x00302f31
  58:	2f2f302f 	svccs	0x002f302f
  5c:	302f2f30 	eorcc	r2, pc, r0, lsr pc	; <UNPREDICTABLE>
  60:	2f302f2f 	svccs	0x00302f2f
  64:	09033030 	stmdbeq	r3, {r4, r5, ip, sp}
  68:	2f302f66 	svccs	0x00302f66
  6c:	022f3033 	eoreq	r3, pc, #51	; 0x33
  70:	01010006 	tsteq	r1, r6
  74:	00000065 	andeq	r0, r0, r5, rrx
  78:	002c0002 	eoreq	r0, ip, r2
  7c:	01020000 	mrseq	r0, (UNDEF: 2)
  80:	000d0efb 	strdeq	r0, [sp], -fp
  84:	01010101 	tsteq	r1, r1, lsl #2
  88:	01000000 	mrseq	r0, (UNDEF: 0)
  8c:	63010000 	movwvs	r0, #4096	; 0x1000
  90:	6f6d6d6f 	svcvs	0x006d6d6f
  94:	72732f6e 	rsbsvc	r2, r3, #440	; 0x1b8
  98:	5f000063 	svcpl	0x00000063
  9c:	76696475 			; <UNDEFINED> instruction: 0x76696475
  a0:	2e336973 	mrccs	9, 1, r6, cr3, cr3, {3}
  a4:	00010053 	andeq	r0, r1, r3, asr r0
  a8:	05000000 	streq	r0, [r0]
  ac:	00811002 	addeq	r1, r1, r2
  b0:	01110340 	tsteq	r1, r0, asr #6
  b4:	2f2f2f2f 	svccs	0x002f2f2f
  b8:	2f2f342f 	svccs	0x002f342f
  bc:	2f322f2f 	svccs	0x00322f2f
  c0:	342f2f2f 	strtcc	r2, [pc], #-3887	; c8 <_start-0x40007f38>
  c4:	2f2f2f2f 	svccs	0x002f2f2f
  c8:	2f2f2f2f 	svccs	0x002f2f2f
  cc:	2f2f2f2f 	svccs	0x002f2f2f
  d0:	302f2f2f 	eorcc	r2, pc, pc, lsr #30
  d4:	2f30302f 	svccs	0x0030302f
  d8:	01000202 	tsteq	r0, r2, lsl #4
  dc:	00006c01 	andeq	r6, r0, r1, lsl #24
  e0:	2c000200 	sfmcs	f0, 4, [r0], {0}
  e4:	02000000 	andeq	r0, r0, #0
  e8:	0d0efb01 	vstreq	d15, [lr, #-4]
  ec:	01010100 	mrseq	r0, (UNDEF: 17)
  f0:	00000001 	andeq	r0, r0, r1
  f4:	01000001 	tsteq	r0, r1
  f8:	6d6d6f63 	stclvs	15, cr6, [sp, #-396]!	; 0xfffffe74
  fc:	732f6e6f 	teqvc	pc, #1776	; 0x6f0
 100:	00006372 	andeq	r6, r0, r2, ror r3
 104:	6f6d755f 	svcvs	0x006d755f
 108:	33697364 	cmncc	r9, #-1879048191	; 0x90000001
 10c:	0100532e 	tsteq	r0, lr, lsr #6
 110:	00000000 	andeq	r0, r0, r0
 114:	81a40205 			; <UNDEFINED> instruction: 0x81a40205
 118:	12034000 	andne	r4, r3, #0
 11c:	2f2f2f01 	svccs	0x002f2f01
 120:	2f2f342f 	svccs	0x002f342f
 124:	2f322f2f 	svccs	0x00322f2f
 128:	332f2f2f 	teqcc	pc, #188	; 0xbc
 12c:	2f2f2f2f 	svccs	0x002f2f2f
 130:	2f2f2f2f 	svccs	0x002f2f2f
 134:	2f2f2f2f 	svccs	0x002f2f2f
 138:	2f2f2f2f 	svccs	0x002f2f2f
 13c:	2f2f2f35 	svccs	0x002f2f35
 140:	2f2f2f2f 	svccs	0x002f2f2f
 144:	2f30302f 	svccs	0x0030302f
 148:	01000202 	tsteq	r0, r2, lsl #4
 14c:	00025301 	andeq	r5, r2, r1, lsl #6
 150:	52000200 	andpl	r0, r0, #0
 154:	02000000 	andeq	r0, r0, #0
 158:	0d0efb01 	vstreq	d15, [lr, #-4]
 15c:	01010100 	mrseq	r0, (UNDEF: 17)
 160:	00000001 	andeq	r0, r0, r1
 164:	01000001 	tsteq	r0, r1
 168:	6f632f2e 	svcvs	0x00632f2e
 16c:	6e6f6d6d 	cdpvs	13, 6, cr6, cr15, cr13, {3}
 170:	636e692f 	cmnvs	lr, #770048	; 0xbc000
 174:	6564756c 	strbvs	r7, [r4, #-1388]!	; 0x56c
 178:	6d6f6300 	stclvs	3, cr6, [pc]	; 180 <_start-0x40007e80>
 17c:	2f6e6f6d 	svccs	0x006e6f6d
 180:	00637273 	rsbeq	r7, r3, r3, ror r2
 184:	79746300 	ldmdbvc	r4!, {r8, r9, sp, lr}^
 188:	682e6570 	stmdavs	lr!, {r4, r5, r6, r8, sl, sp, lr}
 18c:	00000100 	andeq	r0, r0, r0, lsl #2
 190:	6e697270 	mcrvs	2, 3, r7, cr9, cr0, {3}
 194:	632e6674 	teqvs	lr, #121634816	; 0x7400000
 198:	00000200 	andeq	r0, r0, r0, lsl #4
 19c:	61647473 	smcvs	18243	; 0x4743
 1a0:	682e6772 	stmdavs	lr!, {r1, r4, r5, r6, r8, r9, sl, sp, lr}
 1a4:	00000100 	andeq	r0, r0, r0, lsl #2
 1a8:	02050000 	andeq	r0, r5, #0
 1ac:	40008254 	andmi	r8, r0, r4, asr r2
 1b0:	0100c403 	tsteq	r0, r3, lsl #8
 1b4:	2f67bb9f 	svccs	0x0067bb9f
 1b8:	bf030204 	svclt	0x00030204
 1bc:	4cbb9e7f 	ldcmi	14, cr9, [fp], #508	; 0x1fc
 1c0:	02006783 	andeq	r6, r0, #34340864	; 0x20c0000
 1c4:	82060104 	andhi	r0, r6, #1
 1c8:	684bf306 	stmdavs	fp, {r1, r2, r8, r9, ip, sp, lr, pc}^
 1cc:	4c674d67 	stclmi	13, cr4, [r7], #-412	; 0xfffffe64
 1d0:	007fbb30 	rsbseq	fp, pc, r0, lsr fp	; <UNPREDICTABLE>
 1d4:	06010402 	streq	r0, [r1], -r2, lsl #8
 1d8:	0402002e 	streq	r0, [r2], #-46	; 0x2e
 1dc:	0200d602 	andeq	sp, r0, #2097152	; 0x200000
 1e0:	00d60104 	sbcseq	r0, r6, r4, lsl #2
 1e4:	82020402 	andhi	r0, r2, #33554432	; 0x2000000
 1e8:	0200d706 	andeq	sp, r0, #1572864	; 0x180000
 1ec:	d6060304 	strle	r0, [r6], -r4, lsl #6
 1f0:	05040200 	streq	r0, [r4, #-512]	; 0x200
 1f4:	67a36506 	strvs	r6, [r3, r6, lsl #10]!
 1f8:	bba12f67 	bllt	fe84bf9c <key_number+0xbe841868>
 1fc:	9f210883 	svcls	0x00210883
 200:	83822403 	orrhi	r2, r2, #50331648	; 0x3000000
 204:	02002f4c 	andeq	r2, r0, #304	; 0x130
 208:	c7080104 	strgt	r0, [r8, -r4, lsl #2]
 20c:	02040200 	andeq	r0, r4, #0
 210:	a0069e06 	andge	r9, r6, r6, lsl #28
 214:	8220032f 	eorhi	r0, r0, #-1140850688	; 0xbc000000
 218:	4b834dd8 	blmi	fe0d3980 <key_number+0xbe0c924c>
 21c:	02006783 	andeq	r6, r0, #34340864	; 0x20c0000
 220:	66060104 	strvs	r0, [r6], -r4, lsl #2
 224:	004b6706 	subeq	r6, fp, r6, lsl #14
 228:	06010402 	streq	r0, [r1], -r2, lsl #8
 22c:	0402009e 	streq	r0, [r2], #-158	; 0x9e
 230:	02004a02 	andeq	r4, r0, #8192	; 0x2000
 234:	002e0304 	eoreq	r0, lr, r4, lsl #6
 238:	06030402 	streq	r0, [r3], -r2, lsl #8
 23c:	0402002f 	streq	r0, [r2], #-47	; 0x2f
 240:	67834b03 	strvs	r4, [r3, r3, lsl #22]
 244:	8383674b 	orrhi	r6, r3, #19660800	; 0x12c0000
 248:	4b83834b 	blmi	fe0e0f7c <key_number+0xbe0d6848>
 24c:	83678369 	cmnhi	r7, #-1543503871	; 0xa4000001
 250:	674b6867 	strbvs	r6, [fp, -r7, ror #16]
 254:	00835a08 	addeq	r5, r3, r8, lsl #20
 258:	02010402 	andeq	r0, r1, #33554432	; 0x2000000
 25c:	4b691032 	blmi	1a4432c <_start-0x3e5c3cd4>
 260:	002f8383 	eoreq	r8, pc, r3, lsl #7
 264:	b9010402 	stmdblt	r1, {r1, sl}
 268:	bb673e08 	bllt	19cfa90 <_start-0x3e638570>
 26c:	67d76783 	ldrbvs	r6, [r7, r3, lsl #15]
 270:	2f83d9bb 	svccs	0x0083d9bb
 274:	01040200 	mrseq	r0, R12_usr
 278:	2f3e08b9 	svccs	0x003e08b9
 27c:	040200d5 	streq	r0, [r2], #-213	; 0xd5
 280:	062e0601 	strteq	r0, [lr], -r1, lsl #12
 284:	002f5a08 	eoreq	r5, pc, r8, lsl #20
 288:	08010402 	stmdaeq	r1, {r1, sl}
 28c:	2f3e0857 	svccs	0x003e0857
 290:	01040200 	mrseq	r0, R12_usr
 294:	2f3e08b9 	svccs	0x003e08b9
 298:	0200a1bf 	andeq	sl, r0, #-1073741777	; 0xc000002f
 29c:	66060104 	strvs	r0, [r6], -r4, lsl #2
 2a0:	02040200 	andeq	r0, r4, #0
 2a4:	84069008 	strhi	r9, [r6], #-8
 2a8:	12038467 	andne	r8, r3, #1728053248	; 0x67000000
 2ac:	d78367ba 			; <UNDEFINED> instruction: 0xd78367ba
 2b0:	02674c32 	rsbeq	r4, r7, #12800	; 0x3200
 2b4:	8383132e 	orrhi	r1, r3, #-1207959552	; 0xb8000000
 2b8:	4b868383 	blmi	fe1a10cc <key_number+0xbe196998>
 2bc:	01040200 	mrseq	r0, R12_usr
 2c0:	83068206 	movwhi	r8, #25094	; 0x6206
 2c4:	9f68839f 	svcls	0x0068839f
 2c8:	4b6b6767 	blmi	1ada06c <_start-0x3e52df94>
 2cc:	02006783 	andeq	r6, r0, #34340864	; 0x20c0000
 2d0:	82060104 	andhi	r0, r6, #1
 2d4:	839f8306 	orrshi	r8, pc, #402653184	; 0x18000000
 2d8:	4e67a068 	cdpmi	0, 6, cr10, cr7, cr8, {3}
 2dc:	0402004b 	streq	r0, [r2], #-75	; 0x4b
 2e0:	00820601 	addeq	r0, r2, r1, lsl #12
 2e4:	06010402 	streq	r0, [r1], -r2, lsl #8
 2e8:	040200f3 	streq	r0, [r2], #-243	; 0xf3
 2ec:	004b4901 	subeq	r4, fp, r1, lsl #18
 2f0:	06010402 	streq	r0, [r1], -r2, lsl #8
 2f4:	04020082 	streq	r0, [r2], #-130	; 0x82
 2f8:	00830601 	addeq	r0, r3, r1, lsl #12
 2fc:	49010402 	stmdbmi	r1, {r1, sl}
 300:	0200674c 	andeq	r6, r0, #19922944	; 0x1300000
 304:	66060104 	strvs	r0, [r6], -r4, lsl #2
 308:	684b9f06 	stmdavs	fp, {r1, r2, r8, r9, sl, fp, ip, pc}^
 30c:	b4024c6a 	strlt	r4, [r2], #-3178	; 0xc6a
 310:	2f831401 	svccs	0x00831401
 314:	01040200 	mrseq	r0, R12_usr
 318:	3d08bcb9 	stccc	12, cr11, [r8, #-740]	; 0xfffffd1c
 31c:	0402002f 	streq	r0, [r2], #-47	; 0x2f
 320:	31bcb901 			; <UNDEFINED> instruction: 0x31bcb901
 324:	bc4c679f 	mcrrlt	7, 9, r6, ip, cr15
 328:	02002f83 	andeq	r2, r0, #524	; 0x20c
 32c:	08b90104 	ldmeq	r9!, {r2, r8}
 330:	0402005a 	streq	r0, [r2], #-90	; 0x5a
 334:	02006702 	andeq	r6, r0, #524288	; 0x80000
 338:	3b080204 	blcc	200b50 <_start-0x3fe074b0>
 33c:	01040200 	mrseq	r0, R12_usr
 340:	84066606 	strhi	r6, [r6], #-1542	; 0x606
 344:	0402002f 	streq	r0, [r2], #-47	; 0x2f
 348:	5a08b901 	bpl	22e754 <_start-0x3fdd98ac>
 34c:	694b6731 	stmdbvs	fp, {r0, r4, r5, r8, r9, sl, sp, lr}^
 350:	323f0881 	eorscc	r0, pc, #8454144	; 0x810000
 354:	2ba39f67 	blcs	fe8e80f8 <key_number+0xbe8dd9c4>
 358:	bb31a09f 	bllt	c685dc <_start-0x3f39fa24>
 35c:	68314b32 	ldmdavs	r1!, {r1, r4, r5, r8, r9, fp, lr}
 360:	3168324b 	cmncc	r8, fp, asr #4
 364:	2dd983bb 	ldclcs	3, cr8, [r9, #748]	; 0x2ec
 368:	2e780367 	cdpcs	3, 7, cr0, cr8, cr7, {3}
 36c:	672e0f03 	strvs	r0, [lr, -r3, lsl #30]!
 370:	040200bb 	streq	r0, [r2], #-187	; 0xbb
 374:	06660601 	strbteq	r0, [r6], -r1, lsl #12
 378:	bb67bb67 	bllt	19ef11c <_start-0x3e618ee4>
 37c:	d783d767 	strle	sp, [r3, r7, ror #14]
 380:	039fbc83 	orrseq	fp, pc, #33536	; 0x8300
 384:	74087ee2 	strvc	r7, [r8], #-3810	; 0xee2
 388:	01040200 	mrseq	r0, R12_usr
 38c:	03066606 	movweq	r6, #26118	; 0x6606
 390:	678201a0 	strvs	r0, [r2, r0, lsr #3]
 394:	67a2a167 	strvs	sl, [r2, r7, ror #2]!
 398:	86a12fbc 			; <UNDEFINED> instruction: 0x86a12fbc
 39c:	0267f46b 	rsbeq	pc, r7, #1795162112	; 0x6b000000
 3a0:	01010008 	tsteq	r1, r8
 3a4:	00000079 	andeq	r0, r0, r9, ror r0
 3a8:	004a0002 	subeq	r0, sl, r2
 3ac:	01020000 	mrseq	r0, (UNDEF: 2)
 3b0:	000d0efb 	strdeq	r0, [sp], -fp
 3b4:	01010101 	tsteq	r1, r1, lsl #2
 3b8:	01000000 	mrseq	r0, (UNDEF: 0)
 3bc:	63010000 	movwvs	r0, #4096	; 0x1000
 3c0:	6f6d6d6f 	svcvs	0x006d6d6f
 3c4:	72732f6e 	rsbsvc	r2, r3, #440	; 0x1b8
 3c8:	2f2e0063 	svccs	0x002e0063
 3cc:	6d6d6f63 	stclvs	15, cr6, [sp, #-396]!	; 0xfffffe74
 3d0:	692f6e6f 	stmdbvs	pc!, {r0, r1, r2, r3, r5, r6, r9, sl, fp, sp, lr}	; <UNPREDICTABLE>
 3d4:	756c636e 	strbvc	r6, [ip, #-878]!	; 0x36e
 3d8:	00006564 	andeq	r6, r0, r4, ror #10
 3dc:	74726175 	ldrbtvc	r6, [r2], #-373	; 0x175
 3e0:	0100632e 	tsteq	r0, lr, lsr #6
 3e4:	78650000 	stmdavc	r5!, {}^	; <UNPREDICTABLE>
 3e8:	736f6e79 	cmnvc	pc, #1936	; 0x790
 3ec:	3134345f 	teqcc	r4, pc, asr r4
 3f0:	00682e32 	rsbeq	r2, r8, r2, lsr lr
 3f4:	00000002 	andeq	r0, r0, r2
 3f8:	48020500 	stmdami	r2, {r8, sl}
 3fc:	15400094 	strbne	r0, [r0, #-148]	; 0x94
 400:	6867bc4d 	stmdavs	r7!, {r0, r2, r3, r6, sl, fp, ip, sp, pc}^
 404:	9fa16767 	svcls	0x00a16767
 408:	01040200 	mrseq	r0, R12_usr
 40c:	9f062e06 	svcls	0x00062e06
 410:	844b6767 	strbhi	r6, [fp], #-1895	; 0x767
 414:	02002f83 	andeq	r2, r0, #524	; 0x20c
 418:	84d50104 	ldrbhi	r0, [r5], #260	; 0x104
 41c:	01000602 	tsteq	r0, r2, lsl #12
 420:	00007901 	andeq	r7, r0, r1, lsl #18
 424:	3e000200 	cdpcc	2, 0, cr0, cr0, cr0, {0}
 428:	02000000 	andeq	r0, r0, #0
 42c:	0d0efb01 	vstreq	d15, [lr, #-4]
 430:	01010100 	mrseq	r0, (UNDEF: 17)
 434:	00000001 	andeq	r0, r0, r1
 438:	01000001 	tsteq	r0, r1
 43c:	6f632f2e 	svcvs	0x00632f2e
 440:	6e6f6d6d 	cdpvs	13, 6, cr6, cr15, cr13, {3}
 444:	636e692f 	cmnvs	lr, #770048	; 0xbc000
 448:	6564756c 	strbvs	r7, [r4, #-1388]!	; 0x56c
 44c:	656b0000 	strbvs	r0, [fp]!
 450:	00632e79 	rsbeq	r2, r3, r9, ror lr
 454:	65000000 	strvs	r0, [r0]
 458:	6f6e7978 	svcvs	0x006e7978
 45c:	34345f73 	ldrtcc	r5, [r4], #-3955	; 0xf73
 460:	682e3231 	stmdavs	lr!, {r0, r4, r5, r9, ip, sp}
 464:	00000100 	andeq	r0, r0, r0, lsl #2
 468:	02050000 	andeq	r0, r5, #0
 46c:	40009554 	andmi	r9, r0, r4, asr r5
 470:	bca04c14 	stclt	12, cr4, [r0], #80	; 0x50
 474:	9fa3a09f 	svcls	0x00a3a09f
 478:	2d83bc67 	stccs	12, cr11, [r3, #412]	; 0x19c
 47c:	a0696731 	rsbge	r6, r9, r1, lsr r7
 480:	a3a09fbc 	movge	r9, #752	; 0x2f0
 484:	83bc679f 			; <UNDEFINED> instruction: 0x83bc679f
 488:	6a67312d 	bvs	19cc944 <_start-0x3e63b6bc>
 48c:	a09fbca0 	addsge	fp, pc, r0, lsr #25
 490:	bc679fa3 	stcllt	15, cr9, [r7], #-652	; 0xfffffd74
 494:	67312d83 	ldrvs	r2, [r1, -r3, lsl #27]!
 498:	00220267 	eoreq	r0, r2, r7, ror #4
 49c:	00d00101 	sbcseq	r0, r0, r1, lsl #2
 4a0:	00020000 	andeq	r0, r2, r0
 4a4:	0000003f 	andeq	r0, r0, pc, lsr r0
 4a8:	0efb0102 	cdpeq	1, 15, cr0, cr11, cr2, {0}
 4ac:	0101000d 	tsteq	r1, sp
 4b0:	00000101 	andeq	r0, r0, r1, lsl #2
 4b4:	00000100 	andeq	r0, r0, r0, lsl #2
 4b8:	632f2e01 	teqvs	pc, #16
 4bc:	6f6d6d6f 	svcvs	0x006d6d6f
 4c0:	6e692f6e 	cdpvs	15, 6, cr2, cr9, cr14, {3}
 4c4:	64756c63 	ldrbtvs	r6, [r5], #-3171	; 0xc63
 4c8:	6d000065 	stcvs	0, cr0, [r0, #-404]	; 0xfffffe6c
 4cc:	2e6e6961 	cdpcs	9, 6, cr6, cr14, cr1, {3}
 4d0:	00000063 	andeq	r0, r0, r3, rrx
 4d4:	79786500 	ldmdbvc	r8!, {r8, sl, sp, lr}^
 4d8:	5f736f6e 	svcpl	0x00736f6e
 4dc:	32313434 	eorscc	r3, r1, #872415232	; 0x34000000
 4e0:	0100682e 	tsteq	r0, lr, lsr #16
 4e4:	00000000 	andeq	r0, r0, r0
 4e8:	98100205 	ldmdals	r0, {r0, r2, r9}
 4ec:	0f034000 	svceq	0x00034000
 4f0:	672f8401 	strvs	r8, [pc, -r1, lsl #8]!
 4f4:	02040200 	andeq	r0, r4, #0
 4f8:	02006606 	andeq	r6, r0, #6291456	; 0x600000
 4fc:	06660104 	strbteq	r0, [r6], -r4, lsl #2
 500:	04020081 	streq	r0, [r2], #-129	; 0x81
 504:	00660601 	rsbeq	r0, r6, r1, lsl #12
 508:	06010402 	streq	r0, [r1], -r2, lsl #8
 50c:	86410865 	strbhi	r0, [r1], -r5, ror #16
 510:	02689f69 	rsbeq	r9, r8, #420	; 0x1a4
 514:	9f4b143a 	svcls	0x004b143a
 518:	6931684c 	ldmdbvs	r1!, {r2, r3, r6, fp, sp, lr}
 51c:	67683167 	strbvs	r3, [r8, -r7, ror #2]!
 520:	9fd84b31 	svcls	0x00d84b31
 524:	639f304d 	orrsvs	r3, pc, #77	; 0x4d
 528:	4f31bb35 	svcmi	0x0031bb35
 52c:	4ce608f4 	stclmi	8, cr0, [r6], #976	; 0x3d0
 530:	30304c2f 	eorscc	r4, r0, pc, lsr #24
 534:	6867bcbb 	stmdavs	r7!, {r0, r1, r3, r4, r5, r7, sl, fp, ip, sp, pc}^
 538:	00bcbbbb 	ldrhteq	fp, [ip], fp
 53c:	c0010402 	andgt	r0, r1, r2, lsl #8
 540:	01040200 	mrseq	r0, R12_usr
 544:	04020067 	streq	r0, [r2], #-103	; 0x67
 548:	02006801 	andeq	r6, r0, #65536	; 0x10000
 54c:	004c0104 	subeq	r0, ip, r4, lsl #2
 550:	67010402 	strvs	r0, [r1, -r2, lsl #8]
 554:	01040200 	mrseq	r0, R12_usr
 558:	04020067 	streq	r0, [r2], #-103	; 0x67
 55c:	02004c01 	andeq	r4, r0, #256	; 0x100
 560:	00670104 	rsbeq	r0, r7, r4, lsl #2
 564:	67010402 	strvs	r0, [r1, -r2, lsl #8]
 568:	01040200 	mrseq	r0, R12_usr
 56c:	000e024b 	andeq	r0, lr, fp, asr #4
 570:	006a0101 	rsbeq	r0, sl, r1, lsl #2
 574:	00020000 	andeq	r0, r2, r0
 578:	00000041 	andeq	r0, r0, r1, asr #32
 57c:	0efb0102 	cdpeq	1, 15, cr0, cr11, cr2, {0}
 580:	0101000d 	tsteq	r1, sp
 584:	00000101 	andeq	r0, r0, r1, lsl #2
 588:	00000100 	andeq	r0, r0, r0, lsl #2
 58c:	632f2e01 	teqvs	pc, #16
 590:	6f6d6d6f 	svcvs	0x006d6d6f
 594:	6e692f6e 	cdpvs	15, 6, cr2, cr9, cr14, {3}
 598:	64756c63 	ldrbtvs	r6, [r5], #-3171	; 0xc63
 59c:	74000065 	strvc	r0, [r0], #-101	; 0x65
 5a0:	72656d69 	rsbvc	r6, r5, #6720	; 0x1a40
 5a4:	00632e34 	rsbeq	r2, r3, r4, lsr lr
 5a8:	65000000 	strvs	r0, [r0]
 5ac:	6f6e7978 	svcvs	0x006e7978
 5b0:	34345f73 	ldrtcc	r5, [r4], #-3955	; 0xf73
 5b4:	682e3231 	stmdavs	lr!, {r0, r4, r5, r9, ip, sp}
 5b8:	00000100 	andeq	r0, r0, r0, lsl #2
 5bc:	02050000 	andeq	r0, r5, #0
 5c0:	40009be0 	andmi	r9, r0, r0, ror #23
 5c4:	bdbb4c16 	ldclt	12, cr4, [fp, #88]!	; 0x58
 5c8:	679fbda0 	ldrvs	fp, [pc, r0, lsr #27]
 5cc:	312d83bc 			; <UNDEFINED> instruction: 0x312d83bc
 5d0:	40086867 	andmi	r6, r8, r7, ror #16
 5d4:	2208679f 	andcs	r6, r8, #41680896	; 0x27c0000
 5d8:	02bbbbbb 	adcseq	fp, fp, #191488	; 0x2ec00
 5dc:	0101000a 	tsteq	r1, sl

Disassembly of section .debug_info:

00000000 <.debug_info>:
       0:	00000046 	andeq	r0, r0, r6, asr #32
       4:	00000002 	andeq	r0, r0, r2
       8:	01040000 	mrseq	r0, (UNDEF: 4)
       c:	00000000 	andeq	r0, r0, r0
      10:	40008000 	andmi	r8, r0, r0
      14:	40008104 	andmi	r8, r0, r4, lsl #2
      18:	72617473 	rsbvc	r7, r1, #1929379840	; 0x73000000
      1c:	74732f74 	ldrbtvc	r2, [r3], #-3956	; 0xf74
      20:	2e747261 	cdpcs	2, 7, cr7, cr4, cr1, {3}
      24:	3a440053 	bcc	1100178 <_start-0x3ef07e88>
      28:	4d45545c 	cfstrdmi	mvd5, [r5, #-368]	; 0xfffffe90
      2c:	38315c50 	ldmdacc	r1!, {r4, r6, sl, fp, ip, lr}
      30:	61313330 	teqvs	r1, r0, lsr r3
      34:	425c6d72 	subsmi	r6, ip, #7296	; 0x1c80
      38:	00504545 	subseq	r4, r0, r5, asr #10
      3c:	20554e47 	subscs	r4, r5, r7, asr #28
      40:	32205341 	eorcc	r5, r0, #67108865	; 0x4000001
      44:	0031322e 	eorseq	r3, r1, lr, lsr #4
      48:	004e8001 	subeq	r8, lr, r1
      4c:	00020000 	andeq	r0, r2, r0
      50:	00000014 	andeq	r0, r0, r4, lsl r0
      54:	00740104 	rsbseq	r0, r4, r4, lsl #2
      58:	81100000 	tsthi	r0, r0
      5c:	81a44000 			; <UNDEFINED> instruction: 0x81a44000
      60:	6f634000 	svcvs	0x00634000
      64:	6e6f6d6d 	cdpvs	13, 6, cr6, cr15, cr13, {3}
      68:	6372732f 	cmnvs	r2, #-1140850688	; 0xbc000000
      6c:	64755f2f 	ldrbtvs	r5, [r5], #-3887	; 0xf2f
      70:	69737669 	ldmdbvs	r3!, {r0, r3, r5, r6, r9, sl, ip, sp, lr}^
      74:	00532e33 	subseq	r2, r3, r3, lsr lr
      78:	545c3a44 	ldrbpl	r3, [ip], #-2628	; 0xa44
      7c:	5c504d45 	mrrcpl	13, 4, r4, r0, cr5
      80:	33303831 	teqcc	r0, #3211264	; 0x310000
      84:	6d726131 	ldfvse	f6, [r2, #-196]!	; 0xffffff3c
      88:	4545425c 	strbmi	r4, [r5, #-604]	; 0x25c
      8c:	4e470050 	mcrmi	0, 2, r0, cr7, cr0, {2}
      90:	53412055 	movtpl	r2, #4181	; 0x1055
      94:	322e3220 	eorcc	r3, lr, #2
      98:	80010031 	andhi	r0, r1, r1, lsr r0
      9c:	0000004e 	andeq	r0, r0, lr, asr #32
      a0:	00280002 	eoreq	r0, r8, r2
      a4:	01040000 	mrseq	r0, (UNDEF: 4)
      a8:	000000dd 	ldrdeq	r0, [r0], -sp
      ac:	400081a4 	andmi	r8, r0, r4, lsr #3
      b0:	40008254 	andmi	r8, r0, r4, asr r2
      b4:	6d6d6f63 	stclvs	15, cr6, [sp, #-396]!	; 0xfffffe74
      b8:	732f6e6f 	teqvc	pc, #1776	; 0x6f0
      bc:	5f2f6372 	svcpl	0x002f6372
      c0:	646f6d75 	strbtvs	r6, [pc], #-3445	; c8 <_start-0x40007f38>
      c4:	2e336973 	mrccs	9, 1, r6, cr3, cr3, {3}
      c8:	3a440053 	bcc	110021c <_start-0x3ef07de4>
      cc:	4d45545c 	cfstrdmi	mvd5, [r5, #-368]	; 0xfffffe90
      d0:	38315c50 	ldmdacc	r1!, {r4, r6, sl, fp, ip, lr}
      d4:	61313330 	teqvs	r1, r0, lsr r3
      d8:	425c6d72 	subsmi	r6, ip, #7296	; 0x1c80
      dc:	00504545 	subseq	r4, r0, r5, asr #10
      e0:	20554e47 	subscs	r4, r5, r7, asr #28
      e4:	32205341 	eorcc	r5, r0, #67108865	; 0x4000001
      e8:	0031322e 	eorseq	r3, r1, lr, lsr #4
      ec:	04be8001 	ldrteq	r8, [lr], #1
      f0:	00020000 	andeq	r0, r2, r0
      f4:	0000003c 	andeq	r0, r0, ip, lsr r0
      f8:	006d0104 	rsbeq	r0, sp, r4, lsl #2
      fc:	99010000 	stmdbls	r1, {}	; <UNPREDICTABLE>
     100:	ad000000 	stcge	0, cr0, [r0]
     104:	54000000 	strpl	r0, [r0]
     108:	48400082 	stmdami	r0, {r1, r7}^
     10c:	4d400094 	stclmi	0, cr0, [r0, #-592]	; 0xfffffdb0
     110:	02000001 	andeq	r0, r0, #1
     114:	00000041 	andeq	r0, r0, r1, asr #32
     118:	00302803 	eorseq	r2, r0, r3, lsl #16
     11c:	04030000 	streq	r0, [r3]
     120:	00000000 	andeq	r0, r0, r0
     124:	00004802 	andeq	r4, r0, r2, lsl #16
     128:	25660300 	strbcs	r0, [r6, #-768]!	; 0x300
     12c:	04000000 	streq	r0, [r0]
     130:	00000037 	andeq	r0, r0, r7, lsr r0
     134:	6a014401 	bvs	51140 <_start-0x3ffb6ec0>
     138:	54000000 	strpl	r0, [r0]
     13c:	a4400082 	strbge	r0, [r0], #-130	; 0x82
     140:	00400082 	subeq	r0, r0, r2, lsl #1
     144:	6a000000 	bvs	14c <_start-0x40007eb4>
     148:	05000000 	streq	r0, [r0]
     14c:	44010063 	strmi	r0, [r1], #-99	; 0x63
     150:	0000006a 	andeq	r0, r0, sl, rrx
     154:	00789102 	rsbseq	r9, r8, r2, lsl #2
     158:	5a080106 	bpl	200578 <_start-0x3fe07a88>
     15c:	07000000 	streq	r0, [r0, -r0]
     160:	00001201 	andeq	r1, r0, r1, lsl #4
     164:	01070200 	mrseq	r0, (UNDEF: 39)
     168:	000000d4 	ldrdeq	r0, [r0], -r4
     16c:	400082a4 	andmi	r8, r0, r4, lsr #5
     170:	4000844c 	andmi	r8, r0, ip, asr #8
     174:	0000002c 	andeq	r0, r0, ip, lsr #32
     178:	000000d4 	ldrdeq	r0, [r0], -r4
     17c:	00706305 	rsbseq	r6, r0, r5, lsl #6
     180:	00db0702 	sbcseq	r0, fp, r2, lsl #14
     184:	91020000 	mrsls	r0, (UNDEF: 2)
     188:	00e9086c 	rsceq	r0, r9, ip, ror #16
     18c:	07020000 	streq	r0, [r2, -r0]
     190:	000000ed 	andeq	r0, r0, sp, ror #1
     194:	08689102 	stmdaeq	r8!, {r1, r8, ip, pc}^
     198:	00000068 	andeq	r0, r0, r8, rrx
     19c:	00f90702 	rscseq	r0, r9, r2, lsl #14
     1a0:	91020000 	mrsls	r0, (UNDEF: 2)
     1a4:	00d30964 	sbcseq	r0, r3, r4, ror #18
     1a8:	09020000 	stmdbeq	r2, {}	; <UNPREDICTABLE>
     1ac:	000000d4 	ldrdeq	r0, [r0], -r4
     1b0:	09749102 	ldmdbeq	r4!, {r1, r8, ip, pc}^
     1b4:	00000021 	andeq	r0, r0, r1, lsr #32
     1b8:	00d40902 	sbcseq	r0, r4, r2, lsl #18
     1bc:	91020000 	mrsls	r0, (UNDEF: 2)
     1c0:	04060070 	streq	r0, [r6], #-112	; 0x70
     1c4:	00007907 	andeq	r7, r0, r7, lsl #18
     1c8:	e1040a00 	tst	r4, r0, lsl #20
     1cc:	0b000000 	bleq	1d4 <_start-0x40007e2c>
     1d0:	000000e6 	andeq	r0, r0, r6, ror #1
     1d4:	63080106 	movwvs	r0, #33030	; 0x8106
     1d8:	0a000000 	beq	1e0 <_start-0x40007e20>
     1dc:	0000f304 	andeq	pc, r0, r4, lsl #6
     1e0:	e6040a00 	str	r0, [r4], -r0, lsl #20
     1e4:	06000000 	streq	r0, [r0], -r0
     1e8:	007e0704 	rsbseq	r0, lr, r4, lsl #14
     1ec:	01070000 	mrseq	r0, (UNDEF: 7)
     1f0:	0000008b 	andeq	r0, r0, fp, lsl #1
     1f4:	47012202 	strmi	r2, [r1, -r2, lsl #4]
     1f8:	4c000001 	stcmi	0, cr0, [r0], {1}
     1fc:	bc400084 	mcrrlt	0, 8, r0, r0, cr4
     200:	58400084 	stmdapl	r0, {r2, r7}^
     204:	47000000 	strmi	r0, [r0, -r0]
     208:	05000001 	streq	r0, [r0, #-1]
     20c:	02007063 	andeq	r7, r0, #99	; 0x63
     210:	0000db22 	andeq	sp, r0, r2, lsr #22
     214:	74910200 	ldrvc	r0, [r1], #512	; 0x200
     218:	0000e908 	andeq	lr, r0, r8, lsl #18
     21c:	ed220200 	sfm	f0, 4, [r2]
     220:	02000000 	andeq	r0, r0, #0
     224:	68087091 	stmdavs	r8, {r0, r4, r7, ip, sp, lr}
     228:	02000000 	andeq	r0, r0, #0
     22c:	0000f922 	andeq	pc, r0, r2, lsr #18
     230:	6c910200 	lfmvs	f0, 4, [r1], {0}
     234:	05040600 	streq	r0, [r4, #-1536]	; 0x600
     238:	00000119 	andeq	r0, r0, r9, lsl r1
     23c:	00002d04 	andeq	r2, r0, r4, lsl #26
     240:	014a0200 	mrseq	r0, (UNDEF: 106)
     244:	00000183 	andeq	r0, r0, r3, lsl #3
     248:	400084bc 			; <UNDEFINED> instruction: 0x400084bc
     24c:	40008550 	andmi	r8, r0, r0, asr r5
     250:	00000084 	andeq	r0, r0, r4, lsl #1
     254:	00000183 	andeq	r0, r0, r3, lsl #3
     258:	02007305 	andeq	r7, r0, #335544320	; 0x14000000
     25c:	00018a4a 	andeq	r8, r1, sl, asr #20
     260:	74910200 	ldrvc	r0, [r1], #512	; 0x200
     264:	0200690c 	andeq	r6, r0, #196608	; 0x30000
     268:	0001834c 	andeq	r8, r1, ip, asr #6
     26c:	78910200 	ldmvc	r1, {r9}
     270:	05040d00 	streq	r0, [r4, #-3328]	; 0xd00
     274:	00746e69 	rsbseq	r6, r4, r9, ror #28
     278:	00db040a 	sbcseq	r0, fp, sl, lsl #8
     27c:	75040000 	strvc	r0, [r4]
     280:	02000006 	andeq	r0, r0, #6
     284:	00f3016f 	rscseq	r0, r3, pc, ror #2
     288:	85500000 	ldrbhi	r0, [r0]
     28c:	89e84000 	stmibhi	r8!, {lr}^
     290:	00b04000 	adcseq	r4, r0, r0
     294:	02600000 	rsbeq	r0, r0, #0
     298:	73050000 	movwvc	r0, #20480	; 0x5000
     29c:	02007274 	andeq	r7, r0, #1073741831	; 0x40000007
     2a0:	0000f36f 	andeq	pc, r0, pc, ror #6
     2a4:	9c910300 	ldcls	3, cr0, [r1], {0}
     2a8:	756e057f 	strbvc	r0, [lr, #-1407]!	; 0x57f
     2ac:	6f02006d 	svcvs	0x0002006d
     2b0:	00000147 	andeq	r0, r0, r7, asr #2
     2b4:	7f989103 	svcvc	0x00989103
     2b8:	00006808 	andeq	r6, r0, r8, lsl #16
     2bc:	f96f0200 			; <UNDEFINED> instruction: 0xf96f0200
     2c0:	03000000 	movweq	r0, #0
     2c4:	087f9491 	ldmdaeq	pc!, {r0, r4, r7, sl, ip, pc}^	; <UNPREDICTABLE>
     2c8:	0000012d 	andeq	r0, r0, sp, lsr #2
     2cc:	01836f02 	orreq	r6, r3, r2, lsl #30
     2d0:	91030000 	mrsls	r0, (UNDEF: 3)
     2d4:	50087f90 	mulpl	r8, r0, pc	; <UNPREDICTABLE>
     2d8:	02000000 	andeq	r0, r0, #0
     2dc:	0001836f 	andeq	r8, r1, pc, ror #6
     2e0:	00910200 	addseq	r0, r1, r0, lsl #4
     2e4:	0000f008 	andeq	pc, r0, r8
     2e8:	836f0200 	cmnhi	pc, #0
     2ec:	02000001 	andeq	r0, r0, #1
     2f0:	630c0491 	movwvs	r0, #50321	; 0xc491
     2f4:	e6720200 	ldrbt	r0, [r2], -r0, lsl #4
     2f8:	02000000 	andeq	r0, r0, #0
     2fc:	22096b91 	andcs	r6, r9, #148480	; 0x24400
     300:	02000001 	andeq	r0, r0, #1
     304:	0000e672 	andeq	lr, r0, r2, ror r6
     308:	77910200 	ldrvc	r0, [r1, r0, lsl #4]
     30c:	706d740c 	rsbvc	r7, sp, ip, lsl #8
     310:	60720200 	rsbsvs	r0, r2, r0, lsl #4
     314:	03000002 	movweq	r0, #2
     318:	097fa091 	ldmdbeq	pc!, {r0, r4, r7, sp, pc}^	; <UNPREDICTABLE>
     31c:	000000f5 	strdeq	r0, [r0], -r5
     320:	00db7302 	sbcseq	r7, fp, r2, lsl #6
     324:	91020000 	mrsls	r0, (UNDEF: 2)
     328:	00690c70 	rsbeq	r0, r9, r0, ror ip
     32c:	01837402 	orreq	r7, r3, r2, lsl #8
     330:	91020000 	mrsls	r0, (UNDEF: 2)
     334:	87140e6c 	ldrhi	r0, [r4, -ip, ror #28]
     338:	87484000 	strbhi	r4, [r8, -r0]
     33c:	27094000 	strcs	r4, [r9, -r0]
     340:	02000001 	andeq	r0, r0, #1
     344:	00018396 	muleq	r1, r6, r3
     348:	64910200 	ldrvs	r0, [r1], #512	; 0x200
     34c:	e60f0000 	str	r0, [pc], -r0
     350:	70000000 	andvc	r0, r0, r0
     354:	10000002 	andne	r0, r0, r2
     358:	000000d4 	ldrdeq	r0, [r0], -r4
     35c:	01070041 	tsteq	r7, r1, asr #32
     360:	000000e1 	andeq	r0, r0, r1, ror #1
     364:	f901b402 			; <UNDEFINED> instruction: 0xf901b402
     368:	e8000000 	stmda	r0, {}	; <UNPREDICTABLE>
     36c:	68400089 	stmdavs	r0, {r0, r3, r7}^
     370:	dc40008a 	mcrrle	0, 8, r0, r0, cr10
     374:	b5000000 	strlt	r0, [r0]
     378:	05000002 	streq	r0, [r0, #-2]
     37c:	b4020073 	strlt	r0, [r2], #-115	; 0x73
     380:	000000db 	ldrdeq	r0, [r0], -fp
     384:	08749102 	ldmdaeq	r4!, {r1, r8, ip, pc}^
     388:	00000027 	andeq	r0, r0, r7, lsr #32
     38c:	00f9b402 	rscseq	fp, r9, r2, lsl #8
     390:	91020000 	mrsls	r0, (UNDEF: 2)
     394:	63730c70 	cmnvs	r3, #28672	; 0x7000
     398:	dbb60200 	blle	fed80ba0 <key_number+0xbed7646c>
     39c:	02000000 	andeq	r0, r0, #0
     3a0:	07007891 			; <UNDEFINED> instruction: 0x07007891
     3a4:	00013201 	andeq	r3, r1, r1, lsl #4
     3a8:	01bc0200 			; <UNDEFINED> instruction: 0x01bc0200
     3ac:	00000183 	andeq	r0, r0, r3, lsl #3
     3b0:	40008a68 	andmi	r8, r0, r8, ror #20
     3b4:	400093a0 	andmi	r9, r0, r0, lsr #7
     3b8:	00000108 	andeq	r0, r0, r8, lsl #2
     3bc:	000003c5 	andeq	r0, r0, r5, asr #7
     3c0:	66756205 	ldrbtvs	r6, [r5], -r5, lsl #4
     3c4:	f3bc0200 	vpaddl.s<illegal width 64>	d0, d0
     3c8:	02000000 	andeq	r0, r0, #0
     3cc:	66054491 			; <UNDEFINED> instruction: 0x66054491
     3d0:	0200746d 	andeq	r7, r0, #1828716544	; 0x6d000000
     3d4:	0000dbbc 			; <UNDEFINED> instruction: 0x0000dbbc
     3d8:	40910200 	addsmi	r0, r1, r0, lsl #4
     3dc:	00011408 	andeq	r1, r1, r8, lsl #8
     3e0:	36bc0200 	ldrtcc	r0, [ip], r0, lsl #4
     3e4:	03000000 	movweq	r0, #0
     3e8:	0c7fbc91 	ldcleq	12, cr11, [pc], #-580	; 1ac <_start-0x40007e54>
     3ec:	006e656c 	rsbeq	r6, lr, ip, ror #10
     3f0:	0183be02 	orreq	fp, r3, r2, lsl #28
     3f4:	91020000 	mrsls	r0, (UNDEF: 2)
     3f8:	756e0c50 	strbvc	r0, [lr, #-3152]!	; 0xc50
     3fc:	c202006d 	andgt	r0, r2, #109	; 0x6d
     400:	000000d4 	ldrdeq	r0, [r0], -r4
     404:	0c749102 	ldfeqp	f1, [r4], #-8
     408:	c4020069 	strgt	r0, [r2], #-105	; 0x69
     40c:	00000183 	andeq	r0, r0, r3, lsl #3
     410:	09709102 	ldmdbeq	r0!, {r1, r8, ip, pc}^
     414:	00000068 	andeq	r0, r0, r8, rrx
     418:	0183c402 	orreq	ip, r3, r2, lsl #8
     41c:	91020000 	mrsls	r0, (UNDEF: 2)
     420:	74730c6c 	ldrbtvc	r0, [r3], #-3180	; 0xc6c
     424:	c5020072 	strgt	r0, [r2, #-114]	; 0x72
     428:	000000f3 	strdeq	r0, [r0], -r3
     42c:	0c689102 	stfeqp	f1, [r8], #-8
     430:	c6020073 			; <UNDEFINED> instruction: 0xc6020073
     434:	000000db 	ldrdeq	r0, [r0], -fp
     438:	09649102 	stmdbeq	r4!, {r1, r8, ip, pc}^
     43c:	000000c3 	andeq	r0, r0, r3, asr #1
     440:	0183c802 	orreq	ip, r3, r2, lsl #16
     444:	91020000 	mrsls	r0, (UNDEF: 2)
     448:	01080960 	tsteq	r8, r0, ror #18
     44c:	ca020000 	bgt	80454 <_start-0x3ff87bac>
     450:	00000183 	andeq	r0, r0, r3, lsl #3
     454:	095c9102 	ldmdbeq	ip, {r1, r8, ip, pc}^
     458:	00000050 	andeq	r0, r0, r0, asr r0
     45c:	0183cb02 	orreq	ip, r3, r2, lsl #22
     460:	91020000 	mrsls	r0, (UNDEF: 2)
     464:	00c90958 	sbceq	r0, r9, r8, asr r9
     468:	cd020000 	stcgt	0, cr0, [r2]
     46c:	00000183 	andeq	r0, r0, r3, lsl #3
     470:	11549102 	cmpne	r4, r2, lsl #2
     474:	000000da 	ldrdeq	r0, [r0], -sl
     478:	8ac4d702 	bhi	ff136088 <key_number+0xbf12b954>
     47c:	1c124000 	ldcne	0, cr4, [r2], {0}
     480:	44400091 	strbmi	r0, [r0], #-145	; 0x91
     484:	ac400091 	mcrrge	0, 9, r0, r0, cr1
     488:	13000003 	movwne	r0, #3
     48c:	02007069 	andeq	r7, r0, #105	; 0x69
     490:	03c50135 	biceq	r0, r5, #1073741837	; 0x4000000d
     494:	91020000 	mrsls	r0, (UNDEF: 2)
     498:	480e004c 	stmdami	lr, {r2, r3, r6}
     49c:	70400091 	umaalvc	r0, r0, r1, r0
     4a0:	13400091 	movtne	r0, #145	; 0x91
     4a4:	02007069 	andeq	r7, r0, #105	; 0x69
     4a8:	03cb0138 	biceq	r0, fp, #14
     4ac:	91020000 	mrsls	r0, (UNDEF: 2)
     4b0:	0a000048 	beq	5d8 <_start-0x40007a28>
     4b4:	00014704 	andeq	r4, r1, r4, lsl #14
     4b8:	83040a00 	movwhi	r0, #18944	; 0x4a00
     4bc:	14000001 	strne	r0, [r0], #-1
     4c0:	00013301 	andeq	r3, r1, r1, lsl #6
     4c4:	01730200 	cmneq	r3, r0, lsl #4
     4c8:	00018301 	andeq	r8, r1, r1, lsl #6
     4cc:	0093a000 	addseq	sl, r3, r0
     4d0:	0093f040 	addseq	pc, r3, r0, asr #32
     4d4:	00013440 	andeq	r3, r1, r0, asr #8
     4d8:	00042b00 	andeq	r2, r4, r0, lsl #22
     4dc:	75621500 	strbvc	r1, [r2, #-1280]!	; 0x500
     4e0:	73020066 	movwvc	r0, #8294	; 0x2066
     4e4:	0000f301 	andeq	pc, r0, r1, lsl #6
     4e8:	60910200 	addsvs	r0, r1, r0, lsl #4
     4ec:	746d6615 	strbtvc	r6, [sp], #-1557	; 0x615
     4f0:	01730200 	cmneq	r3, r0, lsl #4
     4f4:	000000db 	ldrdeq	r0, [r0], -fp
     4f8:	16749102 	ldrbtne	r9, [r4], -r2, lsl #2
     4fc:	00011417 	andeq	r1, r1, r7, lsl r4
     500:	01750200 	cmneq	r5, r0, lsl #4
     504:	00000036 	andeq	r0, r0, r6, lsr r0
     508:	13649102 	cmnne	r4, #-2147483648	; 0x80000000
     50c:	76020069 	strvc	r0, [r2], -r9, rrx
     510:	00018301 	andeq	r8, r1, r1, lsl #6
     514:	68910200 	ldmvs	r1, {r9}
     518:	34011800 	strcc	r1, [r1], #-2048	; 0x800
     51c:	02000001 	andeq	r0, r0, #1
     520:	f001017e 			; <UNDEFINED> instruction: 0xf001017e
     524:	48400093 	stmdami	r0, {r0, r1, r4, r7}^
     528:	6c400094 	mcrrvs	0, 9, r0, r0, cr4
     52c:	82000001 	andhi	r0, r0, #1
     530:	15000004 	strne	r0, [r0, #-4]
     534:	00746d66 	rsbseq	r6, r4, r6, ror #26
     538:	db017e02 	blle	5fd48 <_start-0x3ffa82b8>
     53c:	02000000 	andeq	r0, r0, #0
     540:	17167091 			; <UNDEFINED> instruction: 0x17167091
     544:	00000114 	andeq	r0, r0, r4, lsl r1
     548:	36018002 	strcc	r8, [r1], -r2
     54c:	02000000 	andeq	r0, r0, #0
     550:	69136091 	ldmdbvs	r3, {r0, r4, r7, sp, lr}
     554:	01810200 	orreq	r0, r1, r0, lsl #4
     558:	000000f9 	strdeq	r0, [r0], -r9
     55c:	17649102 	strbne	r9, [r4, -r2, lsl #2]!
     560:	000000fc 	strdeq	r0, [r0], -ip
     564:	82018202 	andhi	r8, r1, #536870912	; 0x20000000
     568:	03000004 	movweq	r0, #4
     56c:	007efc91 			; <UNDEFINED> instruction: 0x007efc91
     570:	0000e60f 	andeq	lr, r0, pc, lsl #12
     574:	00049200 	andeq	r9, r4, r0, lsl #4
     578:	00d41000 	sbcseq	r1, r4, r0
     57c:	00630000 	rsbeq	r0, r3, r0
     580:	00006a0f 	andeq	r6, r0, pc, lsl #20
     584:	0004a200 	andeq	sl, r4, r0, lsl #4
     588:	00d41000 	sbcseq	r1, r4, r0
     58c:	00ff0000 	rscseq	r0, pc, r0
     590:	0000ee19 	andeq	lr, r0, r9, lsl lr
     594:	92110100 	andsls	r0, r1, #0
     598:	01000004 	tsteq	r0, r4
     59c:	00ee1a01 	rsceq	r1, lr, r1, lsl #20
     5a0:	11010000 	mrsne	r0, (UNDEF: 1)
     5a4:	00000492 	muleq	r0, r2, r4
     5a8:	34030501 	strcc	r0, [r3], #-1281	; 0x501
     5ac:	004000a6 	subeq	r0, r0, r6, lsr #1
     5b0:	0000020d 	andeq	r0, r0, sp, lsl #4
     5b4:	01af0002 			; <UNDEFINED> instruction: 0x01af0002
     5b8:	01040000 	mrseq	r0, (UNDEF: 4)
     5bc:	0000006d 	andeq	r0, r0, sp, rrx
     5c0:	0001c701 	andeq	ip, r1, r1, lsl #14
     5c4:	0000ad00 	andeq	sl, r0, r0, lsl #26
     5c8:	00944800 	addseq	r4, r4, r0, lsl #16
     5cc:	00955440 	addseq	r5, r5, r0, asr #8
     5d0:	0003a440 	andeq	sl, r3, r0, asr #8
     5d4:	07040200 	streq	r0, [r4, -r0, lsl #4]
     5d8:	0000007e 	andeq	r0, r0, lr, ror r0
     5dc:	89021803 	stmdbhi	r2, {r0, r1, fp, ip}
     5e0:	00009001 	andeq	r9, r0, r1
     5e4:	4f430400 	svcmi	0x00430400
     5e8:	8a02004e 	bhi	80728 <_start-0x3ff878d8>
     5ec:	00002501 	andeq	r2, r0, r1, lsl #10
     5f0:	00230200 	eoreq	r0, r3, r0, lsl #4
     5f4:	54414404 	strbpl	r4, [r1], #-1028	; 0x404
     5f8:	018b0200 	orreq	r0, fp, r0, lsl #4
     5fc:	00000025 	andeq	r0, r0, r5, lsr #32
     600:	04042302 	streq	r2, [r4], #-770	; 0x302
     604:	00445550 	subeq	r5, r4, r0, asr r5
     608:	25018c02 	strcs	r8, [r1, #-3074]	; 0xc02
     60c:	02000000 	andeq	r0, r0, #0
     610:	44040823 	strmi	r0, [r4], #-2083	; 0x823
     614:	02005652 	andeq	r5, r0, #85983232	; 0x5200000
     618:	0025018d 	eoreq	r0, r5, sp, lsl #3
     61c:	23020000 	movwcs	r0, #8192	; 0x2000
     620:	018a050c 	orreq	r0, sl, ip, lsl #10
     624:	8e020000 	cdphi	0, 0, cr0, cr2, cr0, {0}
     628:	00002501 	andeq	r2, r0, r1, lsl #10
     62c:	10230200 	eorne	r0, r3, r0, lsl #4
     630:	0001c005 	andeq	ip, r1, r5
     634:	018f0200 	orreq	r0, pc, r0, lsl #4
     638:	00000025 	andeq	r0, r0, r5, lsr #32
     63c:	00142302 	andseq	r2, r4, r2, lsl #6
     640:	0001ad06 	andeq	sl, r1, r6, lsl #26
     644:	01900200 	orrseq	r0, r0, r0, lsl #4
     648:	0000002c 	andeq	r0, r0, ip, lsr #32
     64c:	c9023c03 	stmdbgt	r2, {r0, r1, sl, fp, ip, sp}
     650:	00018703 	andeq	r8, r1, r3, lsl #14
     654:	01a60500 			; <UNDEFINED> instruction: 0x01a60500
     658:	ca020000 	bgt	80660 <_start-0x3ff879a0>
     65c:	00002503 	andeq	r2, r0, r3, lsl #10
     660:	00230200 	eoreq	r0, r3, r0, lsl #4
     664:	00019105 	andeq	r9, r1, r5, lsl #2
     668:	03cb0200 	biceq	r0, fp, #0
     66c:	00000025 	andeq	r0, r0, r5, lsr #32
     670:	05042302 	streq	r2, [r4, #-770]	; 0x302
     674:	0000017d 	andeq	r0, r0, sp, ror r1
     678:	2503cc02 	strcs	ip, [r3, #-3074]	; 0xc02
     67c:	02000000 	andeq	r0, r0, #0
     680:	de050823 	cdple	8, 0, cr0, cr5, cr3, {1}
     684:	02000001 	andeq	r0, r0, #1
     688:	002503cd 	eoreq	r0, r5, sp, asr #7
     68c:	23020000 	movwcs	r0, #8192	; 0x2000
     690:	0165050c 	cmneq	r5, ip, lsl #10
     694:	ce020000 	cdpgt	0, 0, cr0, cr2, cr0, {0}
     698:	00002503 	andeq	r2, r0, r3, lsl #10
     69c:	10230200 	eorne	r0, r3, r0, lsl #4
     6a0:	0001b705 	andeq	fp, r1, r5, lsl #14
     6a4:	03cf0200 	biceq	r0, pc, #0
     6a8:	00000025 	andeq	r0, r0, r5, lsr #32
     6ac:	05142302 	ldreq	r2, [r4, #-770]	; 0x302
     6b0:	0000015d 	andeq	r0, r0, sp, asr r1
     6b4:	2503d002 	strcs	sp, [r3, #-2]
     6b8:	02000000 	andeq	r0, r0, #0
     6bc:	97051823 	strls	r1, [r5, -r3, lsr #16]
     6c0:	02000001 	andeq	r0, r0, #1
     6c4:	002503d1 	ldrdeq	r0, [r5], -r1	; <UNPREDICTABLE>
     6c8:	23020000 	movwcs	r0, #8192	; 0x2000
     6cc:	0184051c 	orreq	r0, r4, ip, lsl r5
     6d0:	d2020000 	andle	r0, r2, #0
     6d4:	00002503 	andeq	r2, r0, r3, lsl #10
     6d8:	20230200 	eorcs	r0, r3, r0, lsl #4
     6dc:	0001e505 	andeq	lr, r1, r5, lsl #10
     6e0:	03d30200 	bicseq	r0, r3, #0
     6e4:	00000025 	andeq	r0, r0, r5, lsr #32
     6e8:	05242302 	streq	r2, [r4, #-770]!	; 0x302
     6ec:	00000150 	andeq	r0, r0, r0, asr r1
     6f0:	2503d402 	strcs	sp, [r3, #-1026]	; 0x402
     6f4:	02000000 	andeq	r0, r0, #0
     6f8:	eb052823 	bl	14a78c <_start-0x3febd874>
     6fc:	02000001 	andeq	r0, r0, #1
     700:	002503d5 	ldrdeq	r0, [r5], -r5	; <UNPREDICTABLE>
     704:	23020000 	movwcs	r0, #8192	; 0x2000
     708:	0141052c 	cmpeq	r1, ip, lsr #10
     70c:	d6020000 	strle	r0, [r2], -r0
     710:	00002503 	andeq	r2, r0, r3, lsl #10
     714:	30230200 	eorcc	r0, r3, r0, lsl #4
     718:	00014805 	andeq	r4, r1, r5, lsl #16
     71c:	03d70200 	bicseq	r0, r7, #0
     720:	00000025 	andeq	r0, r0, r5, lsr #32
     724:	05342302 	ldreq	r2, [r4, #-770]!	; 0x302
     728:	0000019f 	muleq	r0, pc, r1	; <UNPREDICTABLE>
     72c:	2503d802 	strcs	sp, [r3, #-2050]	; 0x802
     730:	02000000 	andeq	r0, r0, #0
     734:	06003823 	streq	r3, [r0], -r3, lsr #16
     738:	0000013b 	andeq	r0, r0, fp, lsr r1
     73c:	9c03d902 	stcls	9, cr13, [r3], {2}
     740:	02000000 	andeq	r0, r0, #0
     744:	00790704 	rsbseq	r0, r9, r4, lsl #14
     748:	01070000 	mrseq	r0, (UNDEF: 7)
     74c:	0000016e 	andeq	r0, r0, lr, ror #2
     750:	94480301 	strbls	r0, [r8], #-769	; 0x301
     754:	94ac4000 	strtls	r4, [ip]
     758:	01a44000 			; <UNDEFINED> instruction: 0x01a44000
     75c:	01080000 	mrseq	r0, (UNDEF: 8)
     760:	000001b2 			; <UNDEFINED> instruction: 0x000001b2
     764:	ac011001 	stcge	0, cr1, [r1], {1}
     768:	08400094 	stmdaeq	r0, {r2, r4, r7}^
     76c:	d0400095 	umaalle	r0, r0, r5, r0
     770:	d6000001 	strle	r0, [r0], -r1
     774:	09000001 	stmdbeq	r0, {r0}
     778:	00000178 	andeq	r0, r0, r8, ror r1
     77c:	01d61001 	bicseq	r1, r6, r1
     780:	91020000 	mrsls	r0, (UNDEF: 2)
     784:	db0a0074 	blle	28095c <_start-0x3fd876a4>
     788:	02000001 	andeq	r0, r0, #1
     78c:	00630801 	rsbeq	r0, r3, r1, lsl #16
     790:	01080000 	mrseq	r0, (UNDEF: 8)
     794:	000001d9 	ldrdeq	r0, [r0], -r9
     798:	08011701 	stmdaeq	r1, {r0, r8, r9, sl, ip}
     79c:	54400095 	strbpl	r0, [r0], #-149	; 0x95
     7a0:	fc400095 	mcrr2	0, 9, r0, r0, cr5
     7a4:	0a000001 	beq	7b0 <_start-0x40007850>
     7a8:	09000002 	stmdbeq	r0, {r1}
     7ac:	00000158 	andeq	r0, r0, r8, asr r1
     7b0:	020a1701 	andeq	r1, sl, #262144	; 0x40000
     7b4:	91020000 	mrsls	r0, (UNDEF: 2)
     7b8:	040b0074 	streq	r0, [fp], #-116	; 0x74
     7bc:	000001d6 	ldrdeq	r0, [r0], -r6
     7c0:	00074200 	andeq	r4, r7, r0, lsl #4
     7c4:	4f000200 	svcmi	0x00000200
     7c8:	04000002 	streq	r0, [r0], #-2
     7cc:	00006d01 	andeq	r6, r0, r1, lsl #26
     7d0:	03a60100 			; <UNDEFINED> instruction: 0x03a60100
     7d4:	00ad0000 	adceq	r0, sp, r0
     7d8:	95540000 	ldrbls	r0, [r4]
     7dc:	98104000 	ldmdals	r0, {lr}
     7e0:	04214000 	strteq	r4, [r1]
     7e4:	04020000 	streq	r0, [r2]
     7e8:	00007e07 	andeq	r7, r0, r7, lsl #28
     7ec:	02100300 	andseq	r0, r0, #0
     7f0:	00720200 	rsbseq	r0, r2, r0, lsl #4
     7f4:	43040000 	movwmi	r0, #16384	; 0x4000
     7f8:	02004e4f 	andeq	r4, r0, #1264	; 0x4f0
     7fc:	00250201 	eoreq	r0, r5, r1, lsl #4
     800:	23020000 	movwcs	r0, #8192	; 0x2000
     804:	41440400 	cmpmi	r4, r0, lsl #8
     808:	02020054 	andeq	r0, r2, #84	; 0x54
     80c:	00002502 	andeq	r2, r0, r2, lsl #10
     810:	04230200 	strteq	r0, [r3], #-512	; 0x200
     814:	44555004 	ldrbmi	r5, [r5], #-4
     818:	02030200 	andeq	r0, r3, #0
     81c:	00000025 	andeq	r0, r0, r5, lsr #32
     820:	04082302 	streq	r2, [r8], #-770	; 0x302
     824:	00565244 	subseq	r5, r6, r4, asr #4
     828:	25020402 	strcs	r0, [r2, #-1026]	; 0x402
     82c:	02000000 	andeq	r0, r0, #0
     830:	05000c23 	streq	r0, [r0, #-3107]	; 0xc23
     834:	00000464 	andeq	r0, r0, r4, ror #8
     838:	2c020502 	cfstr32cs	mvfx0, [r2], {2}
     83c:	03000000 	movweq	r0, #0
     840:	02120210 	andseq	r0, r2, #1
     844:	000000c4 	andeq	r0, r0, r4, asr #1
     848:	4e4f4304 	cdpmi	3, 4, cr4, cr15, cr4, {0}
     84c:	02130200 	andseq	r0, r3, #0
     850:	00000025 	andeq	r0, r0, r5, lsr #32
     854:	04002302 	streq	r2, [r0], #-770	; 0x302
     858:	00544144 	subseq	r4, r4, r4, asr #2
     85c:	25021402 	strcs	r1, [r2, #-1026]	; 0x402
     860:	02000000 	andeq	r0, r0, #0
     864:	50040423 	andpl	r0, r4, r3, lsr #8
     868:	02004455 	andeq	r4, r0, #1426063360	; 0x55000000
     86c:	00250215 	eoreq	r0, r5, r5, lsl r2
     870:	23020000 	movwcs	r0, #8192	; 0x2000
     874:	52440408 	subpl	r0, r4, #134217728	; 0x8000000
     878:	16020056 			; <UNDEFINED> instruction: 0x16020056
     87c:	00002502 	andeq	r2, r0, r2, lsl #10
     880:	0c230200 	sfmeq	f0, 4, [r3]
     884:	04690500 	strbteq	r0, [r9], #-1280	; 0x500
     888:	17020000 	strne	r0, [r2, -r0]
     88c:	00007e02 	andeq	r7, r0, r2, lsl #28
     890:	02280300 	eoreq	r0, r8, #0
     894:	0170024b 	cmneq	r0, fp, asr #4
     898:	df060000 	svcle	0x00060000
     89c:	02000005 	andeq	r0, r0, #5
     8a0:	0025024c 	eoreq	r0, r5, ip, asr #4
     8a4:	23020000 	movwcs	r0, #8192	; 0x2000
     8a8:	05270600 	streq	r0, [r7, #-1536]!	; 0x600
     8ac:	4d020000 	stcmi	0, cr0, [r2]
     8b0:	00002502 	andeq	r2, r0, r2, lsl #10
     8b4:	04230200 	strteq	r0, [r3], #-512	; 0x200
     8b8:	00029906 	andeq	r9, r2, r6, lsl #18
     8bc:	024e0200 	subeq	r0, lr, #0
     8c0:	00000025 	andeq	r0, r0, r5, lsr #32
     8c4:	06082302 	streq	r2, [r8], -r2, lsl #6
     8c8:	00000397 	muleq	r0, r7, r3
     8cc:	25024f02 	strcs	r4, [r2, #-3842]	; 0xf02
     8d0:	02000000 	andeq	r0, r0, #0
     8d4:	91060c23 	tstls	r6, r3, lsr #24
     8d8:	02000002 	andeq	r0, r0, #2
     8dc:	00250250 	eoreq	r0, r5, r0, asr r2
     8e0:	23020000 	movwcs	r0, #8192	; 0x2000
     8e4:	02700610 	rsbseq	r0, r0, #16777216	; 0x1000000
     8e8:	51020000 	mrspl	r0, (UNDEF: 2)
     8ec:	00002502 	andeq	r2, r0, r2, lsl #10
     8f0:	14230200 	strtne	r0, [r3], #-512	; 0x200
     8f4:	0005b306 	andeq	fp, r5, r6, lsl #6
     8f8:	02520200 	subseq	r0, r2, #0
     8fc:	00000025 	andeq	r0, r0, r5, lsr #32
     900:	06182302 	ldreq	r2, [r8], -r2, lsl #6
     904:	000003ed 	andeq	r0, r0, sp, ror #7
     908:	25025302 	strcs	r5, [r2, #-770]	; 0x302
     90c:	02000000 	andeq	r0, r0, #0
     910:	51061c23 	tstpl	r6, r3, lsr #24
     914:	02000003 	andeq	r0, r0, #3
     918:	00250254 	eoreq	r0, r5, r4, asr r2
     91c:	23020000 	movwcs	r0, #8192	; 0x2000
     920:	03c00620 	biceq	r0, r0, #33554432	; 0x2000000
     924:	55020000 	strpl	r0, [r2]
     928:	00002502 	andeq	r2, r0, r2, lsl #10
     92c:	24230200 	strtcs	r0, [r3], #-512	; 0x200
     930:	04fd0500 	ldrbteq	r0, [sp], #1280	; 0x500
     934:	56020000 	strpl	r0, [r2], -r0
     938:	0000d002 	andeq	sp, r0, r2
     93c:	02140300 	andseq	r0, r4, #0
     940:	01d1028d 	bicseq	r0, r1, sp, lsl #5
     944:	b5060000 	strlt	r0, [r6]
     948:	02000004 	andeq	r0, r0, #4
     94c:	0025028e 	eoreq	r0, r5, lr, lsl #5
     950:	23020000 	movwcs	r0, #8192	; 0x2000
     954:	03870600 	orreq	r0, r7, #0
     958:	8f020000 	svchi	0x00020000
     95c:	00002502 	andeq	r2, r0, r2, lsl #10
     960:	04230200 	strteq	r0, [r3], #-512	; 0x200
     964:	00038f06 	andeq	r8, r3, r6, lsl #30
     968:	02900200 	addseq	r0, r0, #0
     96c:	00000025 	andeq	r0, r0, r5, lsr #32
     970:	06082302 	streq	r2, [r8], -r2, lsl #6
     974:	000003ce 	andeq	r0, r0, lr, asr #7
     978:	25029102 	strcs	r9, [r2, #-258]	; 0x102
     97c:	02000000 	andeq	r0, r0, #0
     980:	9e060c23 	cdpls	12, 0, cr0, cr6, cr3, {1}
     984:	02000003 	andeq	r0, r0, #3
     988:	00250292 	mlaeq	r5, r2, r2, r0
     98c:	23020000 	movwcs	r0, #8192	; 0x2000
     990:	69070010 	stmdbvs	r7, {r4}
     994:	02007273 	andeq	r7, r0, #805306375	; 0x30000007
     998:	017c0293 			; <UNDEFINED> instruction: 0x017c0293
     99c:	14030000 	strne	r0, [r3]
     9a0:	32029702 	andcc	r9, r2, #524288	; 0x80000
     9a4:	06000002 	streq	r0, [r0], -r2
     9a8:	0000056a 	andeq	r0, r0, sl, ror #10
     9ac:	25029802 	strcs	r9, [r2, #-2050]	; 0x802
     9b0:	02000000 	andeq	r0, r0, #0
     9b4:	98060023 	stmdals	r6, {r0, r1, r5}
     9b8:	02000005 	andeq	r0, r0, #5
     9bc:	00250299 	mlaeq	r5, r9, r2, r0
     9c0:	23020000 	movwcs	r0, #8192	; 0x2000
     9c4:	05a10604 	streq	r0, [r1, #1540]!	; 0x604
     9c8:	9a020000 	bls	809d0 <_start-0x3ff87630>
     9cc:	00002502 	andeq	r2, r0, r2, lsl #10
     9d0:	08230200 	stmdaeq	r3!, {r9}
     9d4:	0005aa06 	andeq	sl, r5, r6, lsl #20
     9d8:	029b0200 	addseq	r0, fp, #0
     9dc:	00000025 	andeq	r0, r0, r5, lsr #32
     9e0:	060c2302 	streq	r2, [ip], -r2, lsl #6
     9e4:	0000049f 	muleq	r0, pc, r4	; <UNPREDICTABLE>
     9e8:	25029c02 	strcs	r9, [r2, #-3074]	; 0xc02
     9ec:	02000000 	andeq	r0, r0, #0
     9f0:	05001023 	streq	r1, [r0, #-35]	; 0x23
     9f4:	000005f3 	strdeq	r0, [r0], -r3
     9f8:	dd029d02 	stcle	13, cr9, [r2, #-8]
     9fc:	03000001 	movweq	r0, #1
     a00:	02c902a0 	sbceq	r0, r9, #10
     a04:	000004a8 	andeq	r0, r0, r8, lsr #9
     a08:	0004a806 	andeq	sl, r4, r6, lsl #16
     a0c:	02ca0200 	sbceq	r0, sl, #0
     a10:	00000025 	andeq	r0, r0, r5, lsr #32
     a14:	06002302 	streq	r2, [r0], -r2, lsl #6
     a18:	000005e6 	andeq	r0, r0, r6, ror #11
     a1c:	2502cb02 	strcs	ip, [r2, #-2818]	; 0xb02
     a20:	02000000 	andeq	r0, r0, #0
     a24:	84060423 	strhi	r0, [r6], #-1059	; 0x423
     a28:	02000002 	andeq	r0, r0, #2
     a2c:	002502cc 	eoreq	r0, r5, ip, asr #5
     a30:	23020000 	movwcs	r0, #8192	; 0x2000
     a34:	04920608 	ldreq	r0, [r2], #1544	; 0x608
     a38:	cd020000 	stcgt	0, cr0, [r2]
     a3c:	00002502 	andeq	r2, r0, r2, lsl #10
     a40:	0c230200 	sfmeq	f0, 4, [r3]
     a44:	00027706 	andeq	r7, r2, r6, lsl #14
     a48:	02ce0200 	sbceq	r0, lr, #0
     a4c:	00000025 	andeq	r0, r0, r5, lsr #32
     a50:	06102302 	ldreq	r2, [r0], -r2, lsl #6
     a54:	000003d6 	ldrdeq	r0, [r0], -r6
     a58:	2502cf02 	strcs	ip, [r2, #-3842]	; 0xf02
     a5c:	02000000 	andeq	r0, r0, #0
     a60:	77061423 	strvc	r1, [r6, -r3, lsr #8]
     a64:	02000004 	andeq	r0, r0, #4
     a68:	002502d0 	ldrdeq	r0, [r5], -r0	; <UNPREDICTABLE>
     a6c:	23020000 	movwcs	r0, #8192	; 0x2000
     a70:	035a0618 	cmpeq	sl, #25165824	; 0x1800000
     a74:	d1020000 	mrsle	r0, (UNDEF: 2)
     a78:	00002502 	andeq	r2, r0, r2, lsl #10
     a7c:	1c230200 	sfmne	f0, 4, [r3]
     a80:	00059006 	andeq	r9, r5, r6
     a84:	02d20200 	sbcseq	r0, r2, #0
     a88:	00000025 	andeq	r0, r0, r5, lsr #32
     a8c:	06202302 	strteq	r2, [r0], -r2, lsl #6
     a90:	000005d7 	ldrdeq	r0, [r0], -r7
     a94:	2502d302 	strcs	sp, [r2, #-770]	; 0x302
     a98:	02000000 	andeq	r0, r0, #0
     a9c:	d0062423 	andle	r2, r6, r3, lsr #8
     aa0:	02000004 	andeq	r0, r0, #4
     aa4:	002502d4 	ldrdeq	r0, [r5], -r4	; <UNPREDICTABLE>
     aa8:	23020000 	movwcs	r0, #8192	; 0x2000
     aac:	04d90628 	ldrbeq	r0, [r9], #1576	; 0x628
     ab0:	d5020000 	strle	r0, [r2]
     ab4:	00002502 	andeq	r2, r0, r2, lsl #10
     ab8:	2c230200 	sfmcs	f0, 4, [r3]
     abc:	0004e206 	andeq	lr, r4, r6, lsl #4
     ac0:	02d60200 	sbcseq	r0, r6, #0
     ac4:	00000025 	andeq	r0, r0, r5, lsr #32
     ac8:	06302302 	ldrteq	r2, [r0], -r2, lsl #6
     acc:	000004eb 	andeq	r0, r0, fp, ror #9
     ad0:	2502d702 	strcs	sp, [r2, #-1794]	; 0x702
     ad4:	02000000 	andeq	r0, r0, #0
     ad8:	f4063423 	vst3.8	{d3-d5}, [r6 :128], r3
     adc:	02000004 	andeq	r0, r0, #4
     ae0:	002502d8 	ldrdeq	r0, [r5], -r8	; <UNPREDICTABLE>
     ae4:	23020000 	movwcs	r0, #8192	; 0x2000
     ae8:	02280638 	eoreq	r0, r8, #58720256	; 0x3800000
     aec:	d9020000 	stmdble	r2, {}	; <UNPREDICTABLE>
     af0:	00002502 	andeq	r2, r0, r2, lsl #10
     af4:	3c230200 	sfmcc	f0, 4, [r3]
     af8:	00050206 	andeq	r0, r5, r6, lsl #4
     afc:	02da0200 	sbcseq	r0, sl, #0
     b00:	00000025 	andeq	r0, r0, r5, lsr #32
     b04:	06402302 	strbeq	r2, [r0], -r2, lsl #6
     b08:	0000050b 	andeq	r0, r0, fp, lsl #10
     b0c:	2502db02 	strcs	sp, [r2, #-2818]	; 0xb02
     b10:	02000000 	andeq	r0, r0, #0
     b14:	14064423 	strne	r4, [r6], #-1059	; 0x423
     b18:	02000005 	andeq	r0, r0, #5
     b1c:	002502dc 	ldrdeq	r0, [r5], -ip	; <UNPREDICTABLE>
     b20:	23020000 	movwcs	r0, #8192	; 0x2000
     b24:	043b0648 	ldrteq	r0, [fp], #-1608	; 0x648
     b28:	dd020000 	stcle	0, cr0, [r2]
     b2c:	00002502 	andeq	r2, r0, r2, lsl #10
     b30:	4c230200 	sfmmi	f0, 4, [r3]
     b34:	0001f506 	andeq	pc, r1, r6, lsl #10
     b38:	02de0200 	sbcseq	r0, lr, #0
     b3c:	00000025 	andeq	r0, r0, r5, lsr #32
     b40:	06502302 	ldrbeq	r2, [r0], -r2, lsl #6
     b44:	000001fe 	strdeq	r0, [r0], -lr
     b48:	2502df02 	strcs	sp, [r2, #-3842]	; 0xf02
     b4c:	02000000 	andeq	r0, r0, #0
     b50:	07065423 	streq	r5, [r6, -r3, lsr #8]
     b54:	02000002 	andeq	r0, r0, #2
     b58:	002502e0 	eoreq	r0, r5, r0, ror #5
     b5c:	23020000 	movwcs	r0, #8192	; 0x2000
     b60:	02100658 	andseq	r0, r0, #92274688	; 0x5800000
     b64:	e1020000 	mrs	r0, (UNDEF: 2)
     b68:	00002502 	andeq	r2, r0, r2, lsl #10
     b6c:	5c230200 	sfmpl	f0, 4, [r3]
     b70:	00024c06 	andeq	r4, r2, r6, lsl #24
     b74:	02e20200 	rsceq	r0, r2, #0
     b78:	00000025 	andeq	r0, r0, r5, lsr #32
     b7c:	06602302 	strbteq	r2, [r0], -r2, lsl #6
     b80:	00000255 	andeq	r0, r0, r5, asr r2
     b84:	2502e302 	strcs	lr, [r2, #-770]	; 0x302
     b88:	02000000 	andeq	r0, r0, #0
     b8c:	5e066423 	cdppl	4, 0, cr6, cr6, cr3, {1}
     b90:	02000002 	andeq	r0, r0, #2
     b94:	002502e4 	eoreq	r0, r5, r4, ror #5
     b98:	23020000 	movwcs	r0, #8192	; 0x2000
     b9c:	02310668 	eorseq	r0, r1, #109051904	; 0x6800000
     ba0:	e5020000 	str	r0, [r2]
     ba4:	00002502 	andeq	r2, r0, r2, lsl #10
     ba8:	6c230200 	sfmvs	f0, 4, [r3]
     bac:	00023a06 	andeq	r3, r2, r6, lsl #20
     bb0:	02e60200 	rsceq	r0, r6, #0
     bb4:	00000025 	andeq	r0, r0, r5, lsr #32
     bb8:	06702302 	ldrbteq	r2, [r0], -r2, lsl #6
     bbc:	00000243 	andeq	r0, r0, r3, asr #4
     bc0:	2502e702 	strcs	lr, [r2, #-1794]	; 0x702
     bc4:	02000000 	andeq	r0, r0, #0
     bc8:	44067423 	strmi	r7, [r6], #-1059	; 0x423
     bcc:	02000004 	andeq	r0, r0, #4
     bd0:	002502e8 	eoreq	r0, r5, r8, ror #5
     bd4:	23020000 	movwcs	r0, #8192	; 0x2000
     bd8:	02670678 	rsbeq	r0, r7, #125829120	; 0x7800000
     bdc:	e9020000 	stmdb	r2, {}	; <UNPREDICTABLE>
     be0:	00002502 	andeq	r2, r0, r2, lsl #10
     be4:	7c230200 	sfmvc	f0, 4, [r3]
     be8:	00030406 	andeq	r0, r3, r6, lsl #8
     bec:	02ea0200 	rsceq	r0, sl, #0
     bf0:	00000025 	andeq	r0, r0, r5, lsr #32
     bf4:	01802303 	orreq	r2, r0, r3, lsl #6
     bf8:	00030d06 	andeq	r0, r3, r6, lsl #26
     bfc:	02eb0200 	rsceq	r0, fp, #0
     c00:	00000025 	andeq	r0, r0, r5, lsr #32
     c04:	01842303 	orreq	r2, r4, r3, lsl #6
     c08:	00031606 	andeq	r1, r3, r6, lsl #12
     c0c:	02ec0200 	rsceq	r0, ip, #0
     c10:	00000025 	andeq	r0, r0, r5, lsr #32
     c14:	01882303 	orreq	r2, r8, r3, lsl #6
     c18:	00031f06 	andeq	r1, r3, r6, lsl #30
     c1c:	02ed0200 	rsceq	r0, sp, #0
     c20:	00000025 	andeq	r0, r0, r5, lsr #32
     c24:	018c2303 	orreq	r2, ip, r3, lsl #6
     c28:	00032806 	andeq	r2, r3, r6, lsl #16
     c2c:	02ee0200 	rsceq	r0, lr, #0
     c30:	00000025 	andeq	r0, r0, r5, lsr #32
     c34:	01902303 	orrseq	r2, r0, r3, lsl #6
     c38:	00033106 	andeq	r3, r3, r6, lsl #2
     c3c:	02ef0200 	rsceq	r0, pc, #0
     c40:	00000025 	andeq	r0, r0, r5, lsr #32
     c44:	01942303 	orrseq	r2, r4, r3, lsl #6
     c48:	00033a06 	andeq	r3, r3, r6, lsl #20
     c4c:	02f00200 	rscseq	r0, r0, #0
     c50:	00000025 	andeq	r0, r0, r5, lsr #32
     c54:	01982303 	orrseq	r2, r8, r3, lsl #6
     c58:	00046e06 	andeq	r6, r4, r6, lsl #28
     c5c:	02f10200 	rscseq	r0, r1, #0
     c60:	00000025 	andeq	r0, r0, r5, lsr #32
     c64:	019c2303 	orrseq	r2, ip, r3, lsl #6
     c68:	70690700 	rsbvc	r0, r9, r0, lsl #14
     c6c:	f2020072 	vqadd.s8	q0, q1, q9
     c70:	00023e02 	andeq	r3, r2, r2, lsl #28
     c74:	02a00300 	adceq	r0, r0, #0
     c78:	071e02f6 			; <UNDEFINED> instruction: 0x071e02f6
     c7c:	bb060000 	bllt	180c84 <_start-0x3fe8737c>
     c80:	02000005 	andeq	r0, r0, #5
     c84:	002502f7 	strdeq	r0, [r5], -r7	; <UNPREDICTABLE>
     c88:	23020000 	movwcs	r0, #8192	; 0x2000
     c8c:	05c90600 	strbeq	r0, [r9, #1536]	; 0x600
     c90:	f8020000 			; <UNDEFINED> instruction: 0xf8020000
     c94:	00002502 	andeq	r2, r0, r2, lsl #10
     c98:	04230200 	strteq	r0, [r3], #-512	; 0x200
     c9c:	00045606 	andeq	r5, r4, r6, lsl #12
     ca0:	02f90200 	rscseq	r0, r9, #0
     ca4:	00000025 	andeq	r0, r0, r5, lsr #32
     ca8:	06082302 	streq	r2, [r8], -r2, lsl #6
     cac:	00000484 	andeq	r0, r0, r4, lsl #9
     cb0:	2502fa02 	strcs	pc, [r2, #-2562]	; 0xa02
     cb4:	02000000 	andeq	r0, r0, #0
     cb8:	c2060c23 	andgt	r0, r6, #8960	; 0x2300
     cbc:	02000004 	andeq	r0, r0, #4
     cc0:	002502fb 	strdeq	r0, [r5], -fp	; <UNPREDICTABLE>
     cc4:	23020000 	movwcs	r0, #8192	; 0x2000
     cc8:	03670610 	cmneq	r7, #16777216	; 0x1000000
     ccc:	fc020000 	stc2	0, cr0, [r2], {0}
     cd0:	00002502 	andeq	r2, r0, r2, lsl #10
     cd4:	14230200 	strtne	r0, [r3], #-512	; 0x200
     cd8:	00058206 	andeq	r8, r5, r6, lsl #4
     cdc:	02fd0200 	rscseq	r0, sp, #0
     ce0:	00000025 	andeq	r0, r0, r5, lsr #32
     ce4:	06182302 	ldreq	r2, [r8], -r2, lsl #6
     ce8:	00000343 	andeq	r0, r0, r3, asr #6
     cec:	2502fe02 	strcs	pc, [r2, #-3586]	; 0xe02
     cf0:	02000000 	andeq	r0, r0, #0
     cf4:	75061c23 	strvc	r1, [r6, #-3107]	; 0xc23
     cf8:	02000003 	andeq	r0, r0, #3
     cfc:	002502ff 	strdeq	r0, [r5], -pc	; <UNPREDICTABLE>
     d00:	23020000 	movwcs	r0, #8192	; 0x2000
     d04:	037e0620 	cmneq	lr, #33554432	; 0x2000000
     d08:	00020000 	andeq	r0, r2, r0
     d0c:	00002503 	andeq	r2, r0, r3, lsl #10
     d10:	24230200 	strtcs	r0, [r3], #-512	; 0x200
     d14:	0002a006 	andeq	sl, r2, r6
     d18:	03010200 	movweq	r0, #4608	; 0x1200
     d1c:	00000025 	andeq	r0, r0, r5, lsr #32
     d20:	06282302 	strteq	r2, [r8], -r2, lsl #6
     d24:	000002aa 	andeq	r0, r0, sl, lsr #5
     d28:	25030202 	strcs	r0, [r3, #-514]	; 0x202
     d2c:	02000000 	andeq	r0, r0, #0
     d30:	b4062c23 	strlt	r2, [r6], #-3107	; 0xc23
     d34:	02000002 	andeq	r0, r0, #2
     d38:	00250303 	eoreq	r0, r5, r3, lsl #6
     d3c:	23020000 	movwcs	r0, #8192	; 0x2000
     d40:	02be0630 	adcseq	r0, lr, #50331648	; 0x3000000
     d44:	04020000 	streq	r0, [r2]
     d48:	00002503 	andeq	r2, r0, r3, lsl #10
     d4c:	34230200 	strtcc	r0, [r3], #-512	; 0x200
     d50:	0002c806 	andeq	ip, r2, r6, lsl #16
     d54:	03050200 	movweq	r0, #20992	; 0x5200
     d58:	00000025 	andeq	r0, r0, r5, lsr #32
     d5c:	06382302 	ldrteq	r2, [r8], -r2, lsl #6
     d60:	000002d2 	ldrdeq	r0, [r0], -r2
     d64:	25030602 	strcs	r0, [r3, #-1538]	; 0x602
     d68:	02000000 	andeq	r0, r0, #0
     d6c:	dc063c23 	stcle	12, cr3, [r6], {35}	; 0x23
     d70:	02000002 	andeq	r0, r0, #2
     d74:	00250307 	eoreq	r0, r5, r7, lsl #6
     d78:	23020000 	movwcs	r0, #8192	; 0x2000
     d7c:	02e60640 	rsceq	r0, r6, #67108864	; 0x4000000
     d80:	08020000 	stmdaeq	r2, {}	; <UNPREDICTABLE>
     d84:	00002503 	andeq	r2, r0, r3, lsl #10
     d88:	44230200 	strtmi	r0, [r3], #-512	; 0x200
     d8c:	0002f006 	andeq	pc, r2, r6
     d90:	03090200 	movweq	r0, #37376	; 0x9200
     d94:	00000025 	andeq	r0, r0, r5, lsr #32
     d98:	06482302 	strbeq	r2, [r8], -r2, lsl #6
     d9c:	000002fa 	strdeq	r0, [r0], -sl
     da0:	25030a02 	strcs	r0, [r3, #-2562]	; 0xa02
     da4:	02000000 	andeq	r0, r0, #0
     da8:	ac064c23 	stcge	12, cr4, [r6], {35}	; 0x23
     dac:	02000003 	andeq	r0, r0, #3
     db0:	0025030b 	eoreq	r0, r5, fp, lsl #6
     db4:	23020000 	movwcs	r0, #8192	; 0x2000
     db8:	03e30650 	mvneq	r0, #83886080	; 0x5000000
     dbc:	0c020000 	stceq	0, cr0, [r2], {0}
     dc0:	00002503 	andeq	r2, r0, r3, lsl #10
     dc4:	54230200 	strtpl	r0, [r3], #-512	; 0x200
     dc8:	0003b606 	andeq	fp, r3, r6, lsl #12
     dcc:	030d0200 	movweq	r0, #53760	; 0xd200
     dd0:	00000025 	andeq	r0, r0, r5, lsr #32
     dd4:	06582302 	ldrbeq	r2, [r8], -r2, lsl #6
     dd8:	000003f5 	strdeq	r0, [r0], -r5
     ddc:	25030e02 	strcs	r0, [r3, #-3586]	; 0xe02
     de0:	02000000 	andeq	r0, r0, #0
     de4:	ff065c23 			; <UNDEFINED> instruction: 0xff065c23
     de8:	02000003 	andeq	r0, r0, #3
     dec:	0025030f 	eoreq	r0, r5, pc, lsl #6
     df0:	23020000 	movwcs	r0, #8192	; 0x2000
     df4:	04090660 	streq	r0, [r9], #-1632	; 0x660
     df8:	10020000 	andne	r0, r2, r0
     dfc:	00002503 	andeq	r2, r0, r3, lsl #10
     e00:	64230200 	strtvs	r0, [r3], #-512	; 0x200
     e04:	00041306 	andeq	r1, r4, r6, lsl #6
     e08:	03110200 	tsteq	r1, #0
     e0c:	00000025 	andeq	r0, r0, r5, lsr #32
     e10:	06682302 	strbteq	r2, [r8], -r2, lsl #6
     e14:	0000041d 	andeq	r0, r0, sp, lsl r4
     e18:	25031202 	strcs	r1, [r3, #-514]	; 0x202
     e1c:	02000000 	andeq	r0, r0, #0
     e20:	27066c23 	strcs	r6, [r6, -r3, lsr #24]
     e24:	02000004 	andeq	r0, r0, #4
     e28:	00250313 	eoreq	r0, r5, r3, lsl r3
     e2c:	23020000 	movwcs	r0, #8192	; 0x2000
     e30:	04310670 	ldrteq	r0, [r1], #-1648	; 0x670
     e34:	14020000 	strne	r0, [r2]
     e38:	00002503 	andeq	r2, r0, r3, lsl #10
     e3c:	74230200 	strtvc	r0, [r3], #-512	; 0x200
     e40:	00051d06 	andeq	r1, r5, r6, lsl #26
     e44:	03150200 	tsteq	r5, #0
     e48:	00000025 	andeq	r0, r0, r5, lsr #32
     e4c:	06782302 	ldrbteq	r2, [r8], -r2, lsl #6
     e50:	000005f8 	strdeq	r0, [r0], -r8
     e54:	25031602 	strcs	r1, [r3, #-1538]	; 0x602
     e58:	02000000 	andeq	r0, r0, #0
     e5c:	2e067c23 	cdpcs	12, 0, cr7, cr6, cr3, {1}
     e60:	02000005 	andeq	r0, r0, #5
     e64:	00250317 	eoreq	r0, r5, r7, lsl r3
     e68:	23030000 	movwcs	r0, #12288	; 0x3000
     e6c:	38060180 	stmdacc	r6, {r7, r8}
     e70:	02000005 	andeq	r0, r0, #5
     e74:	00250318 	eoreq	r0, r5, r8, lsl r3
     e78:	23030000 	movwcs	r0, #12288	; 0x3000
     e7c:	42060184 	andmi	r0, r6, #33	; 0x21
     e80:	02000005 	andeq	r0, r0, #5
     e84:	00250319 	eoreq	r0, r5, r9, lsl r3
     e88:	23030000 	movwcs	r0, #12288	; 0x3000
     e8c:	4c060188 	stfmis	f0, [r6], {136}	; 0x88
     e90:	02000005 	andeq	r0, r0, #5
     e94:	0025031a 	eoreq	r0, r5, sl, lsl r3
     e98:	23030000 	movwcs	r0, #12288	; 0x3000
     e9c:	5606018c 	strpl	r0, [r6], -ip, lsl #3
     ea0:	02000005 	andeq	r0, r0, #5
     ea4:	0025031b 	eoreq	r0, r5, fp, lsl r3
     ea8:	23030000 	movwcs	r0, #12288	; 0x3000
     eac:	60060190 	mulvs	r6, r0, r1
     eb0:	02000005 	andeq	r0, r0, #5
     eb4:	0025031c 	eoreq	r0, r5, ip, lsl r3
     eb8:	23030000 	movwcs	r0, #12288	; 0x3000
     ebc:	19060194 	stmdbne	r6, {r2, r4, r7, r8}
     ec0:	02000002 	andeq	r0, r0, #2
     ec4:	0025031d 	eoreq	r0, r5, sp, lsl r3
     ec8:	23030000 	movwcs	r0, #12288	; 0x3000
     ecc:	78060198 	stmdavc	r6, {r3, r4, r7, r8}
     ed0:	02000005 	andeq	r0, r0, #5
     ed4:	0025031e 	eoreq	r0, r5, lr, lsl r3
     ed8:	23030000 	movwcs	r0, #12288	; 0x3000
     edc:	0500019c 	streq	r0, [r0, #-412]	; 0x19c
     ee0:	00000223 	andeq	r0, r0, r3, lsr #4
     ee4:	b4031f02 	strlt	r1, [r3], #-3842	; 0xf02
     ee8:	02000004 	andeq	r0, r0, #4
     eec:	00790704 	rsbseq	r0, r9, r4, lsl #14
     ef0:	01080000 	mrseq	r0, (UNDEF: 8)
     ef4:	0000044d 	andeq	r0, r0, sp, asr #8
     ef8:	95540301 	ldrbls	r0, [r4, #-769]	; 0x301
     efc:	98104000 	ldmdals	r0, {lr}
     f00:	02284000 	eoreq	r4, r8, #0
     f04:	7f000000 	svcvc	0x00000000
     f08:	02000004 	andeq	r0, r0, #4
     f0c:	0002c600 	andeq	ip, r2, r0, lsl #12
     f10:	6d010400 	cfstrsvs	mvf0, [r1]
     f14:	01000000 	mrseq	r0, (UNDEF: 0)
     f18:	00000688 	andeq	r0, r0, r8, lsl #13
     f1c:	000000ad 	andeq	r0, r0, sp, lsr #1
     f20:	40009810 	andmi	r9, r0, r0, lsl r8
     f24:	40009be0 	andmi	r9, r0, r0, ror #23
     f28:	0000049e 	muleq	r0, lr, r4
     f2c:	2d024802 	stccs	8, cr4, [r2, #-8]
     f30:	00013d01 	andeq	r3, r1, r1, lsl #26
     f34:	067c0300 	ldrbteq	r0, [ip], -r0, lsl #6
     f38:	2e020000 	cdpcs	0, 0, cr0, cr2, cr0, {0}
     f3c:	00013d01 	andeq	r3, r1, r1, lsl #26
     f40:	00230200 	eoreq	r0, r3, r0, lsl #4
     f44:	00068203 	andeq	r8, r6, r3, lsl #4
     f48:	012f0200 	teqeq	pc, r0, lsl #4
     f4c:	0000013d 	andeq	r0, r0, sp, lsr r1
     f50:	03042302 	movweq	r2, #17154	; 0x4302
     f54:	0000069c 	muleq	r0, ip, r6
     f58:	3d013002 	stccc	0, cr3, [r1, #-8]
     f5c:	02000001 	andeq	r0, r0, #1
     f60:	c8030823 	stmdagt	r3, {r0, r1, r5, fp}
     f64:	02000006 	andeq	r0, r0, #6
     f68:	013d0131 	teqeq	sp, r1, lsr r1
     f6c:	23020000 	movwcs	r0, #8192	; 0x2000
     f70:	060d030c 	streq	r0, [sp], -ip, lsl #6
     f74:	32020000 	andcc	r0, r2, #0
     f78:	00013d01 	andeq	r3, r1, r1, lsl #26
     f7c:	10230200 	eorne	r0, r3, r0, lsl #4
     f80:	00062b03 	andeq	r2, r6, r3, lsl #22
     f84:	01330200 	teqeq	r3, r0, lsl #4
     f88:	0000013d 	andeq	r0, r0, sp, lsr r1
     f8c:	03142302 	tsteq	r4, #134217728	; 0x8000000
     f90:	00000657 	andeq	r0, r0, r7, asr r6
     f94:	3d013402 	cfstrscc	mvf3, [r1, #-8]
     f98:	02000001 	andeq	r0, r0, #1
     f9c:	32031823 	andcc	r1, r3, #2293760	; 0x230000
     fa0:	02000006 	andeq	r0, r0, #6
     fa4:	013d0135 	teqeq	sp, r5, lsr r1
     fa8:	23020000 	movwcs	r0, #8192	; 0x2000
     fac:	06a1031c 	ssateq	r0, #2, ip, lsl #6
     fb0:	36020000 	strcc	r0, [r2], -r0
     fb4:	00013d01 	andeq	r3, r1, r1, lsl #26
     fb8:	20230200 	eorcs	r0, r3, r0, lsl #4
     fbc:	00066a03 	andeq	r6, r6, r3, lsl #20
     fc0:	01370200 	teqeq	r7, r0, lsl #4
     fc4:	0000013d 	andeq	r0, r0, sp, lsr r1
     fc8:	03242302 	teqeq	r4, #134217728	; 0x8000000
     fcc:	00000639 	andeq	r0, r0, r9, lsr r6
     fd0:	3d013802 	stccc	8, cr3, [r1, #-8]
     fd4:	02000001 	andeq	r0, r0, #1
     fd8:	a8032823 	stmdage	r3, {r0, r1, r5, fp, sp}
     fdc:	02000006 	andeq	r0, r0, #6
     fe0:	013d0139 	teqeq	sp, r9, lsr r1
     fe4:	23020000 	movwcs	r0, #8192	; 0x2000
     fe8:	0663032c 	strbteq	r0, [r3], -ip, lsr #6
     fec:	3a020000 	bcc	80ff4 <_start-0x3ff8700c>
     ff0:	00013d01 	andeq	r3, r1, r1, lsl #26
     ff4:	30230200 	eorcc	r0, r3, r0, lsl #4
     ff8:	00061403 	andeq	r1, r6, r3, lsl #8
     ffc:	013b0200 	teqeq	fp, r0, lsl #4
    1000:	0000013d 	andeq	r0, r0, sp, lsr r1
    1004:	03342302 	teqeq	r4, #134217728	; 0x8000000
    1008:	000006af 	andeq	r0, r0, pc, lsr #13
    100c:	3d013c02 	stccc	12, cr3, [r1, #-8]
    1010:	02000001 	andeq	r0, r0, #1
    1014:	cf033823 	svcgt	0x00033823
    1018:	02000006 	andeq	r0, r0, #6
    101c:	013d013d 	teqeq	sp, sp, lsr r1
    1020:	23020000 	movwcs	r0, #8192	; 0x2000
    1024:	06b6033c 			; <UNDEFINED> instruction: 0x06b6033c
    1028:	3e020000 	cdpcc	0, 0, cr0, cr2, cr0, {0}
    102c:	00013d01 	andeq	r3, r1, r1, lsl #26
    1030:	40230200 	eormi	r0, r3, r0, lsl #4
    1034:	0006bd03 	andeq	fp, r6, r3, lsl #26
    1038:	013f0200 	teqeq	pc, r0, lsl #4
    103c:	0000013d 	andeq	r0, r0, sp, lsr r1
    1040:	00442302 	subeq	r2, r4, r2, lsl #6
    1044:	7e070404 	cdpvc	4, 0, cr0, cr7, cr4, {0}
    1048:	05000000 	streq	r0, [r0]
    104c:	006d7770 	rsbeq	r7, sp, r0, ror r7
    1050:	25014002 	strcs	r4, [r1, #-2]
    1054:	02000000 	andeq	r0, r0, #0
    1058:	01b50218 			; <UNDEFINED> instruction: 0x01b50218
    105c:	000001b4 			; <UNDEFINED> instruction: 0x000001b4
    1060:	4e4f4306 	cdpmi	3, 4, cr4, cr15, cr6, {0}
    1064:	01b60200 			; <UNDEFINED> instruction: 0x01b60200
    1068:	0000013d 	andeq	r0, r0, sp, lsr r1
    106c:	06002302 	streq	r2, [r0], -r2, lsl #6
    1070:	00544144 	subseq	r4, r4, r4, asr #2
    1074:	3d01b702 	stccc	7, cr11, [r1, #-8]
    1078:	02000001 	andeq	r0, r0, #1
    107c:	50060423 	andpl	r0, r6, r3, lsr #8
    1080:	02004455 	andeq	r4, r0, #1426063360	; 0x55000000
    1084:	013d01b8 			; <UNDEFINED> instruction: 0x013d01b8
    1088:	23020000 	movwcs	r0, #8192	; 0x2000
    108c:	52440608 	subpl	r0, r4, #8388608	; 0x800000
    1090:	b9020056 	stmdblt	r2, {r1, r2, r4, r6}
    1094:	00013d01 	andeq	r3, r1, r1, lsl #26
    1098:	0c230200 	sfmeq	f0, 4, [r3]
    109c:	00018a03 	andeq	r8, r1, r3, lsl #20
    10a0:	01ba0200 			; <UNDEFINED> instruction: 0x01ba0200
    10a4:	0000013d 	andeq	r0, r0, sp, lsr r1
    10a8:	03102302 	tsteq	r0, #134217728	; 0x8000000
    10ac:	000001c0 	andeq	r0, r0, r0, asr #3
    10b0:	3d01bb02 	vstrcc	d11, [r1, #-8]
    10b4:	02000001 	andeq	r0, r0, #1
    10b8:	07001423 	streq	r1, [r0, -r3, lsr #8]
    10bc:	0000061b 	andeq	r0, r0, fp, lsl r6
    10c0:	5001bc02 	andpl	fp, r1, r2, lsl #24
    10c4:	02000001 	andeq	r0, r0, #1
    10c8:	02000210 	andeq	r0, r0, #1
    10cc:	00000206 	andeq	r0, r0, r6, lsl #4
    10d0:	4e4f4306 	cdpmi	3, 4, cr4, cr15, cr6, {0}
    10d4:	02010200 	andeq	r0, r1, #0
    10d8:	0000013d 	andeq	r0, r0, sp, lsr r1
    10dc:	06002302 	streq	r2, [r0], -r2, lsl #6
    10e0:	00544144 	subseq	r4, r4, r4, asr #2
    10e4:	3d020202 	sfmcc	f0, 4, [r2, #-8]
    10e8:	02000001 	andeq	r0, r0, #1
    10ec:	50060423 	andpl	r0, r6, r3, lsr #8
    10f0:	02004455 	andeq	r4, r0, #1426063360	; 0x55000000
    10f4:	013d0203 	teqeq	sp, r3, lsl #4
    10f8:	23020000 	movwcs	r0, #8192	; 0x2000
    10fc:	52440608 	subpl	r0, r4, #8388608	; 0x800000
    1100:	04020056 	streq	r0, [r2], #-86	; 0x56
    1104:	00013d02 	andeq	r3, r1, r2, lsl #26
    1108:	0c230200 	sfmeq	f0, 4, [r3]
    110c:	04640700 	strbteq	r0, [r4], #-1792	; 0x700
    1110:	05020000 	streq	r0, [r2]
    1114:	0001c002 	andeq	ip, r1, r2
    1118:	02100200 	andseq	r0, r0, #0
    111c:	02580209 	subseq	r0, r8, #-1879048192	; 0x90000000
    1120:	43060000 	movwmi	r0, #24576	; 0x6000
    1124:	02004e4f 	andeq	r4, r0, #1264	; 0x4f0
    1128:	013d020a 	teqeq	sp, sl, lsl #4
    112c:	23020000 	movwcs	r0, #8192	; 0x2000
    1130:	41440600 	cmpmi	r4, r0, lsl #12
    1134:	0b020054 	bleq	8128c <_start-0x3ff86d74>
    1138:	00013d02 	andeq	r3, r1, r2, lsl #26
    113c:	04230200 	strteq	r0, [r3], #-512	; 0x200
    1140:	44555006 	ldrbmi	r5, [r5], #-6
    1144:	020c0200 	andeq	r0, ip, #0
    1148:	0000013d 	andeq	r0, r0, sp, lsr r1
    114c:	06082302 	streq	r2, [r8], -r2, lsl #6
    1150:	00565244 	subseq	r5, r6, r4, asr #4
    1154:	3d020d02 	stccc	13, cr0, [r2, #-8]
    1158:	02000001 	andeq	r0, r0, #1
    115c:	07000c23 	streq	r0, [r0, -r3, lsr #24]
    1160:	0000065e 	andeq	r0, r0, lr, asr r6
    1164:	12020e02 	andne	r0, r2, #32
    1168:	02000002 	andeq	r0, r0, #2
    116c:	02120210 	andseq	r0, r2, #1
    1170:	000002aa 	andeq	r0, r0, sl, lsr #5
    1174:	4e4f4306 	cdpmi	3, 4, cr4, cr15, cr6, {0}
    1178:	02130200 	andseq	r0, r3, #0
    117c:	0000013d 	andeq	r0, r0, sp, lsr r1
    1180:	06002302 	streq	r2, [r0], -r2, lsl #6
    1184:	00544144 	subseq	r4, r4, r4, asr #2
    1188:	3d021402 	cfstrscc	mvf1, [r2, #-8]
    118c:	02000001 	andeq	r0, r0, #1
    1190:	50060423 	andpl	r0, r6, r3, lsr #8
    1194:	02004455 	andeq	r4, r0, #1426063360	; 0x55000000
    1198:	013d0215 	teqeq	sp, r5, lsl r2
    119c:	23020000 	movwcs	r0, #8192	; 0x2000
    11a0:	52440608 	subpl	r0, r4, #8388608	; 0x800000
    11a4:	16020056 			; <UNDEFINED> instruction: 0x16020056
    11a8:	00013d02 	andeq	r3, r1, r2, lsl #26
    11ac:	0c230200 	sfmeq	f0, 4, [r3]
    11b0:	04690700 	strbteq	r0, [r9], #-1792	; 0x700
    11b4:	17020000 	strne	r0, [r2, -r0]
    11b8:	00026402 	andeq	r6, r2, r2, lsl #8
    11bc:	02280200 	eoreq	r0, r8, #0
    11c0:	0356024b 	cmpeq	r6, #-1342177276	; 0xb0000004
    11c4:	df030000 	svcle	0x00030000
    11c8:	02000005 	andeq	r0, r0, #5
    11cc:	013d024c 	teqeq	sp, ip, asr #4
    11d0:	23020000 	movwcs	r0, #8192	; 0x2000
    11d4:	05270300 	streq	r0, [r7, #-768]!	; 0x300
    11d8:	4d020000 	stcmi	0, cr0, [r2]
    11dc:	00013d02 	andeq	r3, r1, r2, lsl #26
    11e0:	04230200 	strteq	r0, [r3], #-512	; 0x200
    11e4:	00029903 	andeq	r9, r2, r3, lsl #18
    11e8:	024e0200 	subeq	r0, lr, #0
    11ec:	0000013d 	andeq	r0, r0, sp, lsr r1
    11f0:	03082302 	movweq	r2, #33538	; 0x8302
    11f4:	00000397 	muleq	r0, r7, r3
    11f8:	3d024f02 	stccc	15, cr4, [r2, #-8]
    11fc:	02000001 	andeq	r0, r0, #1
    1200:	91030c23 	tstls	r3, r3, lsr #24
    1204:	02000002 	andeq	r0, r0, #2
    1208:	013d0250 	teqeq	sp, r0, asr r2
    120c:	23020000 	movwcs	r0, #8192	; 0x2000
    1210:	02700310 	rsbseq	r0, r0, #1073741824	; 0x40000000
    1214:	51020000 	mrspl	r0, (UNDEF: 2)
    1218:	00013d02 	andeq	r3, r1, r2, lsl #26
    121c:	14230200 	strtne	r0, [r3], #-512	; 0x200
    1220:	0005b303 	andeq	fp, r5, r3, lsl #6
    1224:	02520200 	subseq	r0, r2, #0
    1228:	0000013d 	andeq	r0, r0, sp, lsr r1
    122c:	03182302 	tsteq	r8, #134217728	; 0x8000000
    1230:	000003ed 	andeq	r0, r0, sp, ror #7
    1234:	3d025302 	stccc	3, cr5, [r2, #-8]
    1238:	02000001 	andeq	r0, r0, #1
    123c:	51031c23 	tstpl	r3, r3, lsr #24
    1240:	02000003 	andeq	r0, r0, #3
    1244:	013d0254 	teqeq	sp, r4, asr r2
    1248:	23020000 	movwcs	r0, #8192	; 0x2000
    124c:	03c00320 	biceq	r0, r0, #-2147483648	; 0x80000000
    1250:	55020000 	strpl	r0, [r2]
    1254:	00013d02 	andeq	r3, r1, r2, lsl #26
    1258:	24230200 	strtcs	r0, [r3], #-512	; 0x200
    125c:	04fd0700 	ldrbteq	r0, [sp], #1792	; 0x700
    1260:	56020000 	strpl	r0, [r2], -r0
    1264:	0002b602 	andeq	fp, r2, r2, lsl #12
    1268:	07040400 	streq	r0, [r4, -r0, lsl #8]
    126c:	00000079 	andeq	r0, r0, r9, ror r0
    1270:	06020108 	streq	r0, [r2], -r8, lsl #2
    1274:	10010000 	andne	r0, r1, r0
    1278:	00981001 	addseq	r1, r8, r1
    127c:	0098a840 	addseq	sl, r8, r0, asr #16
    1280:	00025440 	andeq	r5, r2, r0, asr #8
    1284:	0003a800 	andeq	sl, r3, r0, lsl #16
    1288:	736d0900 	cmnvc	sp, #0
    128c:	a8100100 	ldmdage	r0, {r8}
    1290:	02000003 	andeq	r0, r0, #3
    1294:	690a7091 	stmdbvs	sl, {r0, r4, r7, ip, sp, lr}
    1298:	a8110100 	ldmdage	r1, {r8}
    129c:	02000003 	andeq	r0, r0, #3
    12a0:	6a0a7891 	bvs	29f4ec <_start-0x3fd68b14>
    12a4:	a8110100 	ldmdage	r1, {r8}
    12a8:	02000003 	andeq	r0, r0, #3
    12ac:	0b007491 	bleq	1e4f8 <_start-0x3ffe9b08>
    12b0:	6e690504 	cdpvs	5, 6, cr0, cr9, cr4, {0}
    12b4:	010c0074 	tsteq	ip, r4, ror r0
    12b8:	0000064b 	andeq	r0, r0, fp, asr #12
    12bc:	98a81b01 	stmials	r8!, {r0, r8, r9, fp, ip}
    12c0:	9aa04000 	bls	fe8112c8 <key_number+0xbe806b94>
    12c4:	02804000 	addeq	r4, r0, #0
    12c8:	04020000 	streq	r0, [r2]
    12cc:	710d0000 	mrsvc	r0, (UNDEF: 13)
    12d0:	01000006 	tsteq	r0, r6
    12d4:	0003a81d 	andeq	sl, r3, sp, lsl r8
    12d8:	74910200 	ldrvc	r0, [r1], #512	; 0x200
    12dc:	0134010e 	teqeq	r4, lr, lsl #2
    12e0:	1f010000 	svcne	0x00010000
    12e4:	000003a8 	andeq	r0, r0, r8, lsr #7
    12e8:	0003e801 	andeq	lr, r3, r1, lsl #16
    12ec:	10000f00 	andne	r0, r0, r0, lsl #30
    12f0:	40009948 	andmi	r9, r0, r8, asr #18
    12f4:	40009a40 	andmi	r9, r0, r0, asr #20
    12f8:	068f0111 	pkhbteq	r0, pc, r1, lsl #2	; <UNPREDICTABLE>
    12fc:	2c010000 	stccs	0, cr0, [r1], {0}
    1300:	000003a8 	andeq	r0, r0, r8, lsr #7
    1304:	00000f01 	andeq	r0, r0, r1, lsl #30
    1308:	52011200 	andpl	r1, r1, #0
    130c:	01000006 	tsteq	r0, r6
    1310:	03a80154 			; <UNDEFINED> instruction: 0x03a80154
    1314:	9aa00000 	bls	fe80131c <key_number+0xbe7f6be8>
    1318:	9be04000 	blls	ff811320 <key_number+0xbf806bec>
    131c:	02ac4000 	adceq	r4, ip, #0
    1320:	04680000 	strbteq	r0, [r8]
    1324:	010e0000 	mrseq	r0, (UNDEF: 14)
    1328:	0000016e 	andeq	r0, r0, lr, ror #2
    132c:	03a85601 			; <UNDEFINED> instruction: 0x03a85601
    1330:	32010000 	andcc	r0, r1, #0
    1334:	0f000004 	svceq	0x00000004
    1338:	34010e00 	strcc	r0, [r1], #-3584	; 0xe00
    133c:	01000001 	tsteq	r0, r1
    1340:	0003a81f 	andeq	sl, r3, pc, lsl r8
    1344:	04450100 	strbeq	r0, [r5], #-256	; 0x100
    1348:	000f0000 	andeq	r0, pc, r0
    134c:	0640010e 	strbeq	r0, [r0], -lr, lsl #2
    1350:	59010000 	stmdbpl	r1, {}	; <UNPREDICTABLE>
    1354:	000003a8 	andeq	r0, r0, r8, lsr #7
    1358:	00045801 	andeq	r5, r4, r1, lsl #16
    135c:	11000f00 	tstne	r0, r0, lsl #30
    1360:	00044d01 	andeq	r4, r4, r1, lsl #26
    1364:	a85b0100 	ldmdage	fp, {r8}^
    1368:	01000003 	tsteq	r0, r3
    136c:	1300000f 	movwne	r0, #15
    1370:	00000620 	andeq	r0, r0, r0, lsr #12
    1374:	03a81901 			; <UNDEFINED> instruction: 0x03a81901
    1378:	01010000 	mrseq	r0, (UNDEF: 1)
    137c:	00062013 	andeq	r2, r6, r3, lsl r0
    1380:	a8190100 	ldmdage	r9, {r8}
    1384:	01000003 	tsteq	r0, r3
    1388:	081d0001 	ldmdaeq	sp, {r0}
    138c:	00020000 	andeq	r0, r2, r0
    1390:	000003ea 	andeq	r0, r0, sl, ror #7
    1394:	006d0104 	rsbeq	r0, sp, r4, lsl #2
    1398:	d6010000 	strle	r0, [r1], -r0
    139c:	ad000006 	stcge	0, cr0, [r0, #-24]	; 0xffffffe8
    13a0:	e0000000 	and	r0, r0, r0
    13a4:	7440009b 	strbvc	r0, [r0], #-155	; 0x9b
    13a8:	7240009d 	subvc	r0, r0, #157	; 0x9d
    13ac:	02000005 	andeq	r0, r0, #5
    13b0:	012d0248 	teqeq	sp, r8, asr #4
    13b4:	0000013d 	andeq	r0, r0, sp, lsr r1
    13b8:	00067c03 	andeq	r7, r6, r3, lsl #24
    13bc:	012e0200 	teqeq	lr, r0, lsl #4
    13c0:	0000013d 	andeq	r0, r0, sp, lsr r1
    13c4:	03002302 	movweq	r2, #770	; 0x302
    13c8:	00000682 	andeq	r0, r0, r2, lsl #13
    13cc:	3d012f02 	stccc	15, cr2, [r1, #-8]
    13d0:	02000001 	andeq	r0, r0, #1
    13d4:	9c030423 	cfstrsls	mvf0, [r3], {35}	; 0x23
    13d8:	02000006 	andeq	r0, r0, #6
    13dc:	013d0130 	teqeq	sp, r0, lsr r1
    13e0:	23020000 	movwcs	r0, #8192	; 0x2000
    13e4:	06c80308 	strbeq	r0, [r8], r8, lsl #6
    13e8:	31020000 	mrscc	r0, (UNDEF: 2)
    13ec:	00013d01 	andeq	r3, r1, r1, lsl #26
    13f0:	0c230200 	sfmeq	f0, 4, [r3]
    13f4:	00060d03 	andeq	r0, r6, r3, lsl #26
    13f8:	01320200 	teqeq	r2, r0, lsl #4
    13fc:	0000013d 	andeq	r0, r0, sp, lsr r1
    1400:	03102302 	tsteq	r0, #134217728	; 0x8000000
    1404:	0000062b 	andeq	r0, r0, fp, lsr #12
    1408:	3d013302 	stccc	3, cr3, [r1, #-8]
    140c:	02000001 	andeq	r0, r0, #1
    1410:	57031423 	strpl	r1, [r3, -r3, lsr #8]
    1414:	02000006 	andeq	r0, r0, #6
    1418:	013d0134 	teqeq	sp, r4, lsr r1
    141c:	23020000 	movwcs	r0, #8192	; 0x2000
    1420:	06320318 			; <UNDEFINED> instruction: 0x06320318
    1424:	35020000 	strcc	r0, [r2]
    1428:	00013d01 	andeq	r3, r1, r1, lsl #26
    142c:	1c230200 	sfmne	f0, 4, [r3]
    1430:	0006a103 	andeq	sl, r6, r3, lsl #2
    1434:	01360200 	teqeq	r6, r0, lsl #4
    1438:	0000013d 	andeq	r0, r0, sp, lsr r1
    143c:	03202302 	teqeq	r0, #134217728	; 0x8000000
    1440:	0000066a 	andeq	r0, r0, sl, ror #12
    1444:	3d013702 	stccc	7, cr3, [r1, #-8]
    1448:	02000001 	andeq	r0, r0, #1
    144c:	39032423 	stmdbcc	r3, {r0, r1, r5, sl, sp}
    1450:	02000006 	andeq	r0, r0, #6
    1454:	013d0138 	teqeq	sp, r8, lsr r1
    1458:	23020000 	movwcs	r0, #8192	; 0x2000
    145c:	06a80328 	strteq	r0, [r8], r8, lsr #6
    1460:	39020000 	stmdbcc	r2, {}	; <UNPREDICTABLE>
    1464:	00013d01 	andeq	r3, r1, r1, lsl #26
    1468:	2c230200 	sfmcs	f0, 4, [r3]
    146c:	00066303 	andeq	r6, r6, r3, lsl #6
    1470:	013a0200 	teqeq	sl, r0, lsl #4
    1474:	0000013d 	andeq	r0, r0, sp, lsr r1
    1478:	03302302 	teqeq	r0, #134217728	; 0x8000000
    147c:	00000614 	andeq	r0, r0, r4, lsl r6
    1480:	3d013b02 	vstrcc	d3, [r1, #-8]
    1484:	02000001 	andeq	r0, r0, #1
    1488:	af033423 	svcge	0x00033423
    148c:	02000006 	andeq	r0, r0, #6
    1490:	013d013c 	teqeq	sp, ip, lsr r1
    1494:	23020000 	movwcs	r0, #8192	; 0x2000
    1498:	06cf0338 			; <UNDEFINED> instruction: 0x06cf0338
    149c:	3d020000 	stccc	0, cr0, [r2]
    14a0:	00013d01 	andeq	r3, r1, r1, lsl #26
    14a4:	3c230200 	sfmcc	f0, 4, [r3]
    14a8:	0006b603 	andeq	fp, r6, r3, lsl #12
    14ac:	013e0200 	teqeq	lr, r0, lsl #4
    14b0:	0000013d 	andeq	r0, r0, sp, lsr r1
    14b4:	03402302 	movteq	r2, #770	; 0x302
    14b8:	000006bd 			; <UNDEFINED> instruction: 0x000006bd
    14bc:	3d013f02 	stccc	15, cr3, [r1, #-8]
    14c0:	02000001 	andeq	r0, r0, #1
    14c4:	04004423 	streq	r4, [r0], #-1059	; 0x423
    14c8:	007e0704 	rsbseq	r0, lr, r4, lsl #14
    14cc:	70050000 	andvc	r0, r5, r0
    14d0:	02006d77 	andeq	r6, r0, #7616	; 0x1dc0
    14d4:	00250140 	eoreq	r0, r5, r0, asr #2
    14d8:	28020000 	stmdacs	r2, {}	; <UNPREDICTABLE>
    14dc:	f0024b02 			; <UNDEFINED> instruction: 0xf0024b02
    14e0:	03000001 	movweq	r0, #1
    14e4:	000005df 	ldrdeq	r0, [r0], -pc	; <UNPREDICTABLE>
    14e8:	3d024c02 	stccc	12, cr4, [r2, #-8]
    14ec:	02000001 	andeq	r0, r0, #1
    14f0:	27030023 	strcs	r0, [r3, -r3, lsr #32]
    14f4:	02000005 	andeq	r0, r0, #5
    14f8:	013d024d 	teqeq	sp, sp, asr #4
    14fc:	23020000 	movwcs	r0, #8192	; 0x2000
    1500:	02990304 	addseq	r0, r9, #268435456	; 0x10000000
    1504:	4e020000 	cdpmi	0, 0, cr0, cr2, cr0, {0}
    1508:	00013d02 	andeq	r3, r1, r2, lsl #26
    150c:	08230200 	stmdaeq	r3!, {r9}
    1510:	00039703 	andeq	r9, r3, r3, lsl #14
    1514:	024f0200 	subeq	r0, pc, #0
    1518:	0000013d 	andeq	r0, r0, sp, lsr r1
    151c:	030c2302 	movweq	r2, #49922	; 0xc302
    1520:	00000291 	muleq	r0, r1, r2
    1524:	3d025002 	stccc	0, cr5, [r2, #-8]
    1528:	02000001 	andeq	r0, r0, #1
    152c:	70031023 	andvc	r1, r3, r3, lsr #32
    1530:	02000002 	andeq	r0, r0, #2
    1534:	013d0251 	teqeq	sp, r1, asr r2
    1538:	23020000 	movwcs	r0, #8192	; 0x2000
    153c:	05b30314 	ldreq	r0, [r3, #788]!	; 0x314
    1540:	52020000 	andpl	r0, r2, #0
    1544:	00013d02 	andeq	r3, r1, r2, lsl #26
    1548:	18230200 	stmdane	r3!, {r9}
    154c:	0003ed03 	andeq	lr, r3, r3, lsl #26
    1550:	02530200 	subseq	r0, r3, #0
    1554:	0000013d 	andeq	r0, r0, sp, lsr r1
    1558:	031c2302 	tsteq	ip, #134217728	; 0x8000000
    155c:	00000351 	andeq	r0, r0, r1, asr r3
    1560:	3d025402 	cfstrscc	mvf5, [r2, #-8]
    1564:	02000001 	andeq	r0, r0, #1
    1568:	c0032023 	andgt	r2, r3, r3, lsr #32
    156c:	02000003 	andeq	r0, r0, #3
    1570:	013d0255 	teqeq	sp, r5, asr r2
    1574:	23020000 	movwcs	r0, #8192	; 0x2000
    1578:	fd060024 	stc2	0, cr0, [r6, #-144]	; 0xffffff70
    157c:	02000004 	andeq	r0, r0, #4
    1580:	01500256 	cmpeq	r0, r6, asr r2
    1584:	14020000 	strne	r0, [r2]
    1588:	51028d02 	tstpl	r2, r2, lsl #26
    158c:	03000002 	movweq	r0, #2
    1590:	000004b5 			; <UNDEFINED> instruction: 0x000004b5
    1594:	3d028e02 	stccc	14, cr8, [r2, #-8]
    1598:	02000001 	andeq	r0, r0, #1
    159c:	87030023 	strhi	r0, [r3, -r3, lsr #32]
    15a0:	02000003 	andeq	r0, r0, #3
    15a4:	013d028f 	teqeq	sp, pc, lsl #5
    15a8:	23020000 	movwcs	r0, #8192	; 0x2000
    15ac:	038f0304 	orreq	r0, pc, #268435456	; 0x10000000
    15b0:	90020000 	andls	r0, r2, r0
    15b4:	00013d02 	andeq	r3, r1, r2, lsl #26
    15b8:	08230200 	stmdaeq	r3!, {r9}
    15bc:	0003ce03 	andeq	ip, r3, r3, lsl #28
    15c0:	02910200 	addseq	r0, r1, #0
    15c4:	0000013d 	andeq	r0, r0, sp, lsr r1
    15c8:	030c2302 	movweq	r2, #49922	; 0xc302
    15cc:	0000039e 	muleq	r0, lr, r3
    15d0:	3d029202 	sfmcc	f1, 1, [r2, #-8]
    15d4:	02000001 	andeq	r0, r0, #1
    15d8:	05001023 	streq	r1, [r0, #-35]	; 0x23
    15dc:	00727369 	rsbseq	r7, r2, r9, ror #6
    15e0:	fc029302 	stc2	3, cr9, [r2], {2}
    15e4:	02000001 	andeq	r0, r0, #1
    15e8:	02970214 	addseq	r0, r7, #1073741825	; 0x40000001
    15ec:	000002b2 			; <UNDEFINED> instruction: 0x000002b2
    15f0:	00056a03 	andeq	r6, r5, r3, lsl #20
    15f4:	02980200 	addseq	r0, r8, #0
    15f8:	0000013d 	andeq	r0, r0, sp, lsr r1
    15fc:	03002302 	movweq	r2, #770	; 0x302
    1600:	00000598 	muleq	r0, r8, r5
    1604:	3d029902 	stccc	9, cr9, [r2, #-8]
    1608:	02000001 	andeq	r0, r0, #1
    160c:	a1030423 	tstge	r3, r3, lsr #8
    1610:	02000005 	andeq	r0, r0, #5
    1614:	013d029a 			; <UNDEFINED> instruction: 0x013d029a
    1618:	23020000 	movwcs	r0, #8192	; 0x2000
    161c:	05aa0308 	streq	r0, [sl, #776]!	; 0x308
    1620:	9b020000 	blls	81628 <_start-0x3ff869d8>
    1624:	00013d02 	andeq	r3, r1, r2, lsl #26
    1628:	0c230200 	sfmeq	f0, 4, [r3]
    162c:	00049f03 	andeq	r9, r4, r3, lsl #30
    1630:	029c0200 	addseq	r0, ip, #0
    1634:	0000013d 	andeq	r0, r0, sp, lsr r1
    1638:	00102302 	andseq	r2, r0, r2, lsl #6
    163c:	0005f306 	andeq	pc, r5, r6, lsl #6
    1640:	029d0200 	addseq	r0, sp, #0
    1644:	0000025d 	andeq	r0, r0, sp, asr r2
    1648:	c902a002 	stmdbgt	r2, {r1, sp, pc}
    164c:	00052802 	andeq	r2, r5, r2, lsl #16
    1650:	04a80300 	strteq	r0, [r8], #768	; 0x300
    1654:	ca020000 	bgt	8165c <_start-0x3ff869a4>
    1658:	00013d02 	andeq	r3, r1, r2, lsl #26
    165c:	00230200 	eoreq	r0, r3, r0, lsl #4
    1660:	0005e603 	andeq	lr, r5, r3, lsl #12
    1664:	02cb0200 	sbceq	r0, fp, #0
    1668:	0000013d 	andeq	r0, r0, sp, lsr r1
    166c:	03042302 	movweq	r2, #17154	; 0x4302
    1670:	00000284 	andeq	r0, r0, r4, lsl #5
    1674:	3d02cc02 	stccc	12, cr12, [r2, #-8]
    1678:	02000001 	andeq	r0, r0, #1
    167c:	92030823 	andls	r0, r3, #2293760	; 0x230000
    1680:	02000004 	andeq	r0, r0, #4
    1684:	013d02cd 	teqeq	sp, sp, asr #5
    1688:	23020000 	movwcs	r0, #8192	; 0x2000
    168c:	0277030c 	rsbseq	r0, r7, #805306368	; 0x30000000
    1690:	ce020000 	cdpgt	0, 0, cr0, cr2, cr0, {0}
    1694:	00013d02 	andeq	r3, r1, r2, lsl #26
    1698:	10230200 	eorne	r0, r3, r0, lsl #4
    169c:	0003d603 	andeq	sp, r3, r3, lsl #12
    16a0:	02cf0200 	sbceq	r0, pc, #0
    16a4:	0000013d 	andeq	r0, r0, sp, lsr r1
    16a8:	03142302 	tsteq	r4, #134217728	; 0x8000000
    16ac:	00000477 	andeq	r0, r0, r7, ror r4
    16b0:	3d02d002 	stccc	0, cr13, [r2, #-8]
    16b4:	02000001 	andeq	r0, r0, #1
    16b8:	5a031823 	bpl	c774c <_start-0x3ff408b4>
    16bc:	02000003 	andeq	r0, r0, #3
    16c0:	013d02d1 			; <UNDEFINED> instruction: 0x013d02d1
    16c4:	23020000 	movwcs	r0, #8192	; 0x2000
    16c8:	0590031c 	ldreq	r0, [r0, #796]	; 0x31c
    16cc:	d2020000 	andle	r0, r2, #0
    16d0:	00013d02 	andeq	r3, r1, r2, lsl #26
    16d4:	20230200 	eorcs	r0, r3, r0, lsl #4
    16d8:	0005d703 	andeq	sp, r5, r3, lsl #14
    16dc:	02d30200 	sbcseq	r0, r3, #0
    16e0:	0000013d 	andeq	r0, r0, sp, lsr r1
    16e4:	03242302 	teqeq	r4, #134217728	; 0x8000000
    16e8:	000004d0 	ldrdeq	r0, [r0], -r0	; <UNPREDICTABLE>
    16ec:	3d02d402 	cfstrscc	mvf13, [r2, #-8]
    16f0:	02000001 	andeq	r0, r0, #1
    16f4:	d9032823 	stmdble	r3, {r0, r1, r5, fp, sp}
    16f8:	02000004 	andeq	r0, r0, #4
    16fc:	013d02d5 			; <UNDEFINED> instruction: 0x013d02d5
    1700:	23020000 	movwcs	r0, #8192	; 0x2000
    1704:	04e2032c 	strbteq	r0, [r2], #812	; 0x32c
    1708:	d6020000 	strle	r0, [r2], -r0
    170c:	00013d02 	andeq	r3, r1, r2, lsl #26
    1710:	30230200 	eorcc	r0, r3, r0, lsl #4
    1714:	0004eb03 	andeq	lr, r4, r3, lsl #22
    1718:	02d70200 	sbcseq	r0, r7, #0
    171c:	0000013d 	andeq	r0, r0, sp, lsr r1
    1720:	03342302 	teqeq	r4, #134217728	; 0x8000000
    1724:	000004f4 	strdeq	r0, [r0], -r4
    1728:	3d02d802 	stccc	8, cr13, [r2, #-8]
    172c:	02000001 	andeq	r0, r0, #1
    1730:	28033823 	stmdacs	r3, {r0, r1, r5, fp, ip, sp}
    1734:	02000002 	andeq	r0, r0, #2
    1738:	013d02d9 			; <UNDEFINED> instruction: 0x013d02d9
    173c:	23020000 	movwcs	r0, #8192	; 0x2000
    1740:	0502033c 	streq	r0, [r2, #-828]	; 0x33c
    1744:	da020000 	ble	8174c <_start-0x3ff868b4>
    1748:	00013d02 	andeq	r3, r1, r2, lsl #26
    174c:	40230200 	eormi	r0, r3, r0, lsl #4
    1750:	00050b03 	andeq	r0, r5, r3, lsl #22
    1754:	02db0200 	sbcseq	r0, fp, #0
    1758:	0000013d 	andeq	r0, r0, sp, lsr r1
    175c:	03442302 	movteq	r2, #17154	; 0x4302
    1760:	00000514 	andeq	r0, r0, r4, lsl r5
    1764:	3d02dc02 	stccc	12, cr13, [r2, #-8]
    1768:	02000001 	andeq	r0, r0, #1
    176c:	3b034823 	blcc	d3800 <_start-0x3ff34800>
    1770:	02000004 	andeq	r0, r0, #4
    1774:	013d02dd 			; <UNDEFINED> instruction: 0x013d02dd
    1778:	23020000 	movwcs	r0, #8192	; 0x2000
    177c:	01f5034c 	mvnseq	r0, ip, asr #6
    1780:	de020000 	cdple	0, 0, cr0, cr2, cr0, {0}
    1784:	00013d02 	andeq	r3, r1, r2, lsl #26
    1788:	50230200 	eorpl	r0, r3, r0, lsl #4
    178c:	0001fe03 	andeq	pc, r1, r3, lsl #28
    1790:	02df0200 	sbcseq	r0, pc, #0
    1794:	0000013d 	andeq	r0, r0, sp, lsr r1
    1798:	03542302 	cmpeq	r4, #134217728	; 0x8000000
    179c:	00000207 	andeq	r0, r0, r7, lsl #4
    17a0:	3d02e002 	stccc	0, cr14, [r2, #-8]
    17a4:	02000001 	andeq	r0, r0, #1
    17a8:	10035823 	andne	r5, r3, r3, lsr #16
    17ac:	02000002 	andeq	r0, r0, #2
    17b0:	013d02e1 	teqeq	sp, r1, ror #5
    17b4:	23020000 	movwcs	r0, #8192	; 0x2000
    17b8:	024c035c 	subeq	r0, ip, #1879048193	; 0x70000001
    17bc:	e2020000 	and	r0, r2, #0
    17c0:	00013d02 	andeq	r3, r1, r2, lsl #26
    17c4:	60230200 	eorvs	r0, r3, r0, lsl #4
    17c8:	00025503 	andeq	r5, r2, r3, lsl #10
    17cc:	02e30200 	rsceq	r0, r3, #0
    17d0:	0000013d 	andeq	r0, r0, sp, lsr r1
    17d4:	03642302 	cmneq	r4, #134217728	; 0x8000000
    17d8:	0000025e 	andeq	r0, r0, lr, asr r2
    17dc:	3d02e402 	cfstrscc	mvf14, [r2, #-8]
    17e0:	02000001 	andeq	r0, r0, #1
    17e4:	31036823 	tstcc	r3, r3, lsr #16
    17e8:	02000002 	andeq	r0, r0, #2
    17ec:	013d02e5 	teqeq	sp, r5, ror #5
    17f0:	23020000 	movwcs	r0, #8192	; 0x2000
    17f4:	023a036c 	eorseq	r0, sl, #-1342177279	; 0xb0000001
    17f8:	e6020000 	str	r0, [r2], -r0
    17fc:	00013d02 	andeq	r3, r1, r2, lsl #26
    1800:	70230200 	eorvc	r0, r3, r0, lsl #4
    1804:	00024303 	andeq	r4, r2, r3, lsl #6
    1808:	02e70200 	rsceq	r0, r7, #0
    180c:	0000013d 	andeq	r0, r0, sp, lsr r1
    1810:	03742302 	cmneq	r4, #134217728	; 0x8000000
    1814:	00000444 	andeq	r0, r0, r4, asr #8
    1818:	3d02e802 	stccc	8, cr14, [r2, #-8]
    181c:	02000001 	andeq	r0, r0, #1
    1820:	67037823 	strvs	r7, [r3, -r3, lsr #16]
    1824:	02000002 	andeq	r0, r0, #2
    1828:	013d02e9 	teqeq	sp, r9, ror #5
    182c:	23020000 	movwcs	r0, #8192	; 0x2000
    1830:	0304037c 	movweq	r0, #17276	; 0x437c
    1834:	ea020000 	b	8183c <_start-0x3ff867c4>
    1838:	00013d02 	andeq	r3, r1, r2, lsl #26
    183c:	80230300 	eorhi	r0, r3, r0, lsl #6
    1840:	030d0301 	movweq	r0, #54017	; 0xd301
    1844:	eb020000 	bl	8184c <_start-0x3ff867b4>
    1848:	00013d02 	andeq	r3, r1, r2, lsl #26
    184c:	84230300 	strthi	r0, [r3], #-768	; 0x300
    1850:	03160301 	tsteq	r6, #67108864	; 0x4000000
    1854:	ec020000 	stc	0, cr0, [r2], {0}
    1858:	00013d02 	andeq	r3, r1, r2, lsl #26
    185c:	88230300 	stmdahi	r3!, {r8, r9}
    1860:	031f0301 	tsteq	pc, #67108864	; 0x4000000
    1864:	ed020000 	stc	0, cr0, [r2]
    1868:	00013d02 	andeq	r3, r1, r2, lsl #26
    186c:	8c230300 	stchi	3, cr0, [r3]
    1870:	03280301 	teqeq	r8, #67108864	; 0x4000000
    1874:	ee020000 	cdp	0, 0, cr0, cr2, cr0, {0}
    1878:	00013d02 	andeq	r3, r1, r2, lsl #26
    187c:	90230300 	eorls	r0, r3, r0, lsl #6
    1880:	03310301 	teqeq	r1, #67108864	; 0x4000000
    1884:	ef020000 	svc	0x00020000
    1888:	00013d02 	andeq	r3, r1, r2, lsl #26
    188c:	94230300 	strtls	r0, [r3], #-768	; 0x300
    1890:	033a0301 	teqeq	sl, #67108864	; 0x4000000
    1894:	f0020000 			; <UNDEFINED> instruction: 0xf0020000
    1898:	00013d02 	andeq	r3, r1, r2, lsl #26
    189c:	98230300 	stmdals	r3!, {r8, r9}
    18a0:	046e0301 	strbteq	r0, [lr], #-769	; 0x301
    18a4:	f1020000 	cps	#0
    18a8:	00013d02 	andeq	r3, r1, r2, lsl #26
    18ac:	9c230300 	stcls	3, cr0, [r3]
    18b0:	69050001 	stmdbvs	r5, {r0}
    18b4:	02007270 	andeq	r7, r0, #7
    18b8:	02be02f2 	adcseq	r0, lr, #536870927	; 0x2000000f
    18bc:	a0020000 	andge	r0, r2, r0
    18c0:	9e02f602 	cfmadd32ls	mvax0, mvfx15, mvfx2, mvfx2
    18c4:	03000007 	movweq	r0, #7
    18c8:	000005bb 			; <UNDEFINED> instruction: 0x000005bb
    18cc:	3d02f702 	stccc	7, cr15, [r2, #-8]
    18d0:	02000001 	andeq	r0, r0, #1
    18d4:	c9030023 	stmdbgt	r3, {r0, r1, r5}
    18d8:	02000005 	andeq	r0, r0, #5
    18dc:	013d02f8 			; <UNDEFINED> instruction: 0x013d02f8
    18e0:	23020000 	movwcs	r0, #8192	; 0x2000
    18e4:	04560304 	ldrbeq	r0, [r6], #-772	; 0x304
    18e8:	f9020000 			; <UNDEFINED> instruction: 0xf9020000
    18ec:	00013d02 	andeq	r3, r1, r2, lsl #26
    18f0:	08230200 	stmdaeq	r3!, {r9}
    18f4:	00048403 	andeq	r8, r4, r3, lsl #8
    18f8:	02fa0200 	rscseq	r0, sl, #0
    18fc:	0000013d 	andeq	r0, r0, sp, lsr r1
    1900:	030c2302 	movweq	r2, #49922	; 0xc302
    1904:	000004c2 	andeq	r0, r0, r2, asr #9
    1908:	3d02fb02 	vstrcc	d15, [r2, #-8]
    190c:	02000001 	andeq	r0, r0, #1
    1910:	67031023 	strvs	r1, [r3, -r3, lsr #32]
    1914:	02000003 	andeq	r0, r0, #3
    1918:	013d02fc 			; <UNDEFINED> instruction: 0x013d02fc
    191c:	23020000 	movwcs	r0, #8192	; 0x2000
    1920:	05820314 	streq	r0, [r2, #788]	; 0x314
    1924:	fd020000 	stc2	0, cr0, [r2]
    1928:	00013d02 	andeq	r3, r1, r2, lsl #26
    192c:	18230200 	stmdane	r3!, {r9}
    1930:	00034303 	andeq	r4, r3, r3, lsl #6
    1934:	02fe0200 	rscseq	r0, lr, #0
    1938:	0000013d 	andeq	r0, r0, sp, lsr r1
    193c:	031c2302 	tsteq	ip, #134217728	; 0x8000000
    1940:	00000375 	andeq	r0, r0, r5, ror r3
    1944:	3d02ff02 	stccc	15, cr15, [r2, #-8]
    1948:	02000001 	andeq	r0, r0, #1
    194c:	7e032023 	cdpvc	0, 0, cr2, cr3, cr3, {1}
    1950:	02000003 	andeq	r0, r0, #3
    1954:	013d0300 	teqeq	sp, r0, lsl #6
    1958:	23020000 	movwcs	r0, #8192	; 0x2000
    195c:	02a00324 	adceq	r0, r0, #-1879048192	; 0x90000000
    1960:	01020000 	mrseq	r0, (UNDEF: 2)
    1964:	00013d03 	andeq	r3, r1, r3, lsl #26
    1968:	28230200 	stmdacs	r3!, {r9}
    196c:	0002aa03 	andeq	sl, r2, r3, lsl #20
    1970:	03020200 	movweq	r0, #8704	; 0x2200
    1974:	0000013d 	andeq	r0, r0, sp, lsr r1
    1978:	032c2302 	teqeq	ip, #134217728	; 0x8000000
    197c:	000002b4 			; <UNDEFINED> instruction: 0x000002b4
    1980:	3d030302 	stccc	3, cr0, [r3, #-8]
    1984:	02000001 	andeq	r0, r0, #1
    1988:	be033023 	cdplt	0, 0, cr3, cr3, cr3, {1}
    198c:	02000002 	andeq	r0, r0, #2
    1990:	013d0304 	teqeq	sp, r4, lsl #6
    1994:	23020000 	movwcs	r0, #8192	; 0x2000
    1998:	02c80334 	sbceq	r0, r8, #-805306368	; 0xd0000000
    199c:	05020000 	streq	r0, [r2]
    19a0:	00013d03 	andeq	r3, r1, r3, lsl #26
    19a4:	38230200 	stmdacc	r3!, {r9}
    19a8:	0002d203 	andeq	sp, r2, r3, lsl #4
    19ac:	03060200 	movweq	r0, #25088	; 0x6200
    19b0:	0000013d 	andeq	r0, r0, sp, lsr r1
    19b4:	033c2302 	teqeq	ip, #134217728	; 0x8000000
    19b8:	000002dc 	ldrdeq	r0, [r0], -ip
    19bc:	3d030702 	stccc	7, cr0, [r3, #-8]
    19c0:	02000001 	andeq	r0, r0, #1
    19c4:	e6034023 	str	r4, [r3], -r3, lsr #32
    19c8:	02000002 	andeq	r0, r0, #2
    19cc:	013d0308 	teqeq	sp, r8, lsl #6
    19d0:	23020000 	movwcs	r0, #8192	; 0x2000
    19d4:	02f00344 	rscseq	r0, r0, #268435457	; 0x10000001
    19d8:	09020000 	stmdbeq	r2, {}	; <UNPREDICTABLE>
    19dc:	00013d03 	andeq	r3, r1, r3, lsl #26
    19e0:	48230200 	stmdami	r3!, {r9}
    19e4:	0002fa03 	andeq	pc, r2, r3, lsl #20
    19e8:	030a0200 	movweq	r0, #41472	; 0xa200
    19ec:	0000013d 	andeq	r0, r0, sp, lsr r1
    19f0:	034c2302 	movteq	r2, #49922	; 0xc302
    19f4:	000003ac 	andeq	r0, r0, ip, lsr #7
    19f8:	3d030b02 	vstrcc	d0, [r3, #-8]
    19fc:	02000001 	andeq	r0, r0, #1
    1a00:	e3035023 	movw	r5, #12323	; 0x3023
    1a04:	02000003 	andeq	r0, r0, #3
    1a08:	013d030c 	teqeq	sp, ip, lsl #6
    1a0c:	23020000 	movwcs	r0, #8192	; 0x2000
    1a10:	03b60354 			; <UNDEFINED> instruction: 0x03b60354
    1a14:	0d020000 	stceq	0, cr0, [r2]
    1a18:	00013d03 	andeq	r3, r1, r3, lsl #26
    1a1c:	58230200 	stmdapl	r3!, {r9}
    1a20:	0003f503 	andeq	pc, r3, r3, lsl #10
    1a24:	030e0200 	movweq	r0, #57856	; 0xe200
    1a28:	0000013d 	andeq	r0, r0, sp, lsr r1
    1a2c:	035c2302 	cmpeq	ip, #134217728	; 0x8000000
    1a30:	000003ff 	strdeq	r0, [r0], -pc	; <UNPREDICTABLE>
    1a34:	3d030f02 	stccc	15, cr0, [r3, #-8]
    1a38:	02000001 	andeq	r0, r0, #1
    1a3c:	09036023 	stmdbeq	r3, {r0, r1, r5, sp, lr}
    1a40:	02000004 	andeq	r0, r0, #4
    1a44:	013d0310 	teqeq	sp, r0, lsl r3
    1a48:	23020000 	movwcs	r0, #8192	; 0x2000
    1a4c:	04130364 	ldreq	r0, [r3], #-868	; 0x364
    1a50:	11020000 	mrsne	r0, (UNDEF: 2)
    1a54:	00013d03 	andeq	r3, r1, r3, lsl #26
    1a58:	68230200 	stmdavs	r3!, {r9}
    1a5c:	00041d03 	andeq	r1, r4, r3, lsl #26
    1a60:	03120200 	tsteq	r2, #0
    1a64:	0000013d 	andeq	r0, r0, sp, lsr r1
    1a68:	036c2302 	cmneq	ip, #134217728	; 0x8000000
    1a6c:	00000427 	andeq	r0, r0, r7, lsr #8
    1a70:	3d031302 	stccc	3, cr1, [r3, #-8]
    1a74:	02000001 	andeq	r0, r0, #1
    1a78:	31037023 	tstcc	r3, r3, lsr #32
    1a7c:	02000004 	andeq	r0, r0, #4
    1a80:	013d0314 	teqeq	sp, r4, lsl r3
    1a84:	23020000 	movwcs	r0, #8192	; 0x2000
    1a88:	051d0374 	ldreq	r0, [sp, #-884]	; 0x374
    1a8c:	15020000 	strne	r0, [r2]
    1a90:	00013d03 	andeq	r3, r1, r3, lsl #26
    1a94:	78230200 	stmdavc	r3!, {r9}
    1a98:	0005f803 	andeq	pc, r5, r3, lsl #16
    1a9c:	03160200 	tsteq	r6, #0
    1aa0:	0000013d 	andeq	r0, r0, sp, lsr r1
    1aa4:	037c2302 	cmneq	ip, #134217728	; 0x8000000
    1aa8:	0000052e 	andeq	r0, r0, lr, lsr #10
    1aac:	3d031702 	stccc	7, cr1, [r3, #-8]
    1ab0:	03000001 	movweq	r0, #1
    1ab4:	03018023 	movweq	r8, #4131	; 0x1023
    1ab8:	00000538 	andeq	r0, r0, r8, lsr r5
    1abc:	3d031802 	stccc	8, cr1, [r3, #-8]
    1ac0:	03000001 	movweq	r0, #1
    1ac4:	03018423 	movweq	r8, #5155	; 0x1423
    1ac8:	00000542 	andeq	r0, r0, r2, asr #10
    1acc:	3d031902 	stccc	9, cr1, [r3, #-8]
    1ad0:	03000001 	movweq	r0, #1
    1ad4:	03018823 	movweq	r8, #6179	; 0x1823
    1ad8:	0000054c 	andeq	r0, r0, ip, asr #10
    1adc:	3d031a02 	vstrcc	s2, [r3, #-8]
    1ae0:	03000001 	movweq	r0, #1
    1ae4:	03018c23 	movweq	r8, #7203	; 0x1c23
    1ae8:	00000556 	andeq	r0, r0, r6, asr r5
    1aec:	3d031b02 	vstrcc	d1, [r3, #-8]
    1af0:	03000001 	movweq	r0, #1
    1af4:	03019023 	movweq	r9, #4131	; 0x1023
    1af8:	00000560 	andeq	r0, r0, r0, ror #10
    1afc:	3d031c02 	stccc	12, cr1, [r3, #-8]
    1b00:	03000001 	movweq	r0, #1
    1b04:	03019423 	movweq	r9, #5155	; 0x1423
    1b08:	00000219 	andeq	r0, r0, r9, lsl r2
    1b0c:	3d031d02 	stccc	13, cr1, [r3, #-8]
    1b10:	03000001 	movweq	r0, #1
    1b14:	03019823 	movweq	r9, #6179	; 0x1823
    1b18:	00000578 	andeq	r0, r0, r8, ror r5
    1b1c:	3d031e02 	stccc	14, cr1, [r3, #-8]
    1b20:	03000001 	movweq	r0, #1
    1b24:	00019c23 	andeq	r9, r1, r3, lsr #24
    1b28:	00022306 	andeq	r2, r2, r6, lsl #6
    1b2c:	031f0200 	tsteq	pc, #0
    1b30:	00000534 	andeq	r0, r0, r4, lsr r5
    1b34:	79070404 	stmdbvc	r7, {r2, sl}
    1b38:	07000000 	streq	r0, [r0, -r0]
    1b3c:	00064001 	andeq	r4, r6, r1
    1b40:	e0040100 	and	r0, r4, r0, lsl #2
    1b44:	d440009b 	strble	r0, [r0], #-155	; 0x9b
    1b48:	d840009c 	stmdale	r0, {r2, r3, r4, r7}^
    1b4c:	08000002 	stmdaeq	r0, {r1}
    1b50:	00068f01 	andeq	r8, r6, r1, lsl #30
    1b54:	011d0100 	tsteq	sp, r0, lsl #2
    1b58:	40009cd4 	ldrdmi	r9, [r0], -r4
    1b5c:	40009d74 	andmi	r9, r0, r4, ror sp
    1b60:	00000304 	andeq	r0, r0, r4, lsl #6
    1b64:	000007fa 	strdeq	r0, [r0], -sl
    1b68:	00736d09 	rsbseq	r6, r3, r9, lsl #26
    1b6c:	07fa1d01 	ldrbeq	r1, [sl, r1, lsl #26]!
    1b70:	91020000 	mrsls	r0, (UNDEF: 2)
    1b74:	06df0a78 			; <UNDEFINED> instruction: 0x06df0a78
    1b78:	1d010000 	stcne	0, cr0, [r1]
    1b7c:	000007fa 	strdeq	r0, [r0], -sl
    1b80:	00749102 	rsbseq	r9, r4, r2, lsl #2
    1b84:	6905040b 	stmdbvs	r5, {r0, r1, r3, sl}
    1b88:	0c00746e 	cfstrseq	mvf7, [r0], {110}	; 0x6e
    1b8c:	00000620 	andeq	r0, r0, r0, lsr #12
    1b90:	07fa1c01 	ldrbeq	r1, [sl, r1, lsl #24]!
    1b94:	01010000 	mrseq	r0, (UNDEF: 1)
    1b98:	0006200d 	andeq	r2, r6, sp
    1b9c:	fa1c0100 	blx	701fa4 <_start-0x3f90605c>
    1ba0:	01000007 	tsteq	r0, r7
    1ba4:	a7340305 	ldrge	r0, [r4, -r5, lsl #6]!
    1ba8:	Address 0x00001ba8 is out of bounds.


Disassembly of section .debug_abbrev:

00000000 <.debug_abbrev>:
   0:	10001101 	andne	r1, r0, r1, lsl #2
   4:	12011106 	andne	r1, r1, #-2147483647	; 0x80000001
   8:	1b080301 	blne	200c14 <_start-0x3fe073ec>
   c:	13082508 	movwne	r2, #34056	; 0x8508
  10:	00000005 	andeq	r0, r0, r5
  14:	10001101 	andne	r1, r0, r1, lsl #2
  18:	12011106 	andne	r1, r1, #-2147483647	; 0x80000001
  1c:	1b080301 	blne	200c28 <_start-0x3fe073d8>
  20:	13082508 	movwne	r2, #34056	; 0x8508
  24:	00000005 	andeq	r0, r0, r5
  28:	10001101 	andne	r1, r0, r1, lsl #2
  2c:	12011106 	andne	r1, r1, #-2147483647	; 0x80000001
  30:	1b080301 	blne	200c3c <_start-0x3fe073c4>
  34:	13082508 	movwne	r2, #34056	; 0x8508
  38:	00000005 	andeq	r0, r0, r5
  3c:	25011101 	strcs	r1, [r1, #-257]	; 0x101
  40:	030b130e 	movweq	r1, #45838	; 0xb30e
  44:	110e1b0e 	tstne	lr, lr, lsl #22
  48:	10011201 	andne	r1, r1, r1, lsl #4
  4c:	02000006 	andeq	r0, r0, #6
  50:	0e030016 	mcreq	0, 0, r0, cr3, cr6, {0}
  54:	0b3b0b3a 	bleq	ec2d44 <_start-0x3f1452bc>
  58:	00001349 	andeq	r1, r0, r9, asr #6
  5c:	0b000f03 	bleq	3c70 <_start-0x40004390>
  60:	000e030b 	andeq	r0, lr, fp, lsl #6
  64:	012e0400 	teqeq	lr, r0, lsl #8
  68:	0b3a0e03 	bleq	e8387c <_start-0x3f184784>
  6c:	0c270b3b 	stceq	11, cr0, [r7], #-236	; 0xffffff14
  70:	01111349 	tsteq	r1, r9, asr #6
  74:	06400112 			; <UNDEFINED> instruction: 0x06400112
  78:	00001301 	andeq	r1, r0, r1, lsl #6
  7c:	03000505 	movweq	r0, #1285	; 0x505
  80:	3b0b3a08 	blcc	2ce8a8 <_start-0x3fd39758>
  84:	0213490b 	andseq	r4, r3, #180224	; 0x2c000
  88:	0600000a 	streq	r0, [r0], -sl
  8c:	0b0b0024 	bleq	2c0124 <_start-0x3fd47edc>
  90:	0e030b3e 	vmoveq.16	d3[0], r0
  94:	2e070000 	cdpcs	0, 0, cr0, cr7, cr0, {0}
  98:	030c3f01 	movweq	r3, #52993	; 0xcf01
  9c:	3b0b3a0e 	blcc	2ce8dc <_start-0x3fd39724>
  a0:	490c270b 	stmdbmi	ip, {r0, r1, r3, r8, r9, sl, sp}
  a4:	12011113 	andne	r1, r1, #-1073741820	; 0xc0000004
  a8:	01064001 	tsteq	r6, r1
  ac:	08000013 	stmdaeq	r0, {r0, r1, r4}
  b0:	0e030005 	cdpeq	0, 0, cr0, cr3, cr5, {0}
  b4:	0b3b0b3a 	bleq	ec2da4 <_start-0x3f14525c>
  b8:	0a021349 	beq	84de4 <_start-0x3ff8321c>
  bc:	34090000 	strcc	r0, [r9]
  c0:	3a0e0300 	bcc	380cc8 <_start-0x3fc87338>
  c4:	490b3b0b 	stmdbmi	fp, {r0, r1, r3, r8, r9, fp, ip, sp}
  c8:	000a0213 	andeq	r0, sl, r3, lsl r2
  cc:	000f0a00 	andeq	r0, pc, r0, lsl #20
  d0:	13490b0b 	movtne	r0, #39691	; 0x9b0b
  d4:	260b0000 	strcs	r0, [fp], -r0
  d8:	00134900 	andseq	r4, r3, r0, lsl #18
  dc:	00340c00 	eorseq	r0, r4, r0, lsl #24
  e0:	0b3a0803 	bleq	e820f4 <_start-0x3f185f0c>
  e4:	13490b3b 	movtne	r0, #39739	; 0x9b3b
  e8:	00000a02 	andeq	r0, r0, r2, lsl #20
  ec:	0b00240d 	bleq	9128 <_start-0x3fffeed8>
  f0:	030b3e0b 	movweq	r3, #48651	; 0xbe0b
  f4:	0e000008 	cdpeq	0, 0, cr0, cr0, cr8, {0}
  f8:	0111010b 	tsteq	r1, fp, lsl #2
  fc:	00000112 	andeq	r0, r0, r2, lsl r1
 100:	4901010f 	stmdbmi	r1, {r0, r1, r2, r3, r8}
 104:	00130113 	andseq	r0, r3, r3, lsl r1
 108:	00211000 	eoreq	r1, r1, r0
 10c:	0b2f1349 	bleq	bc4e38 <_start-0x3f4431c8>
 110:	0a110000 	beq	440118 <_start-0x3fbc7ee8>
 114:	3a0e0300 	bcc	380d1c <_start-0x3fc872e4>
 118:	110b3b0b 	tstne	fp, fp, lsl #22
 11c:	12000001 	andne	r0, r0, #1
 120:	0111010b 	tsteq	r1, fp, lsl #2
 124:	13010112 	movwne	r0, #4370	; 0x1112
 128:	34130000 	ldrcc	r0, [r3]
 12c:	3a080300 	bcc	200d34 <_start-0x3fe072cc>
 130:	49053b0b 	stmdbmi	r5, {r0, r1, r3, r8, r9, fp, ip, sp}
 134:	000a0213 	andeq	r0, sl, r3, lsl r2
 138:	012e1400 	teqeq	lr, r0, lsl #8
 13c:	0e030c3f 	mcreq	12, 0, r0, cr3, cr15, {1}
 140:	053b0b3a 	ldreq	r0, [fp, #-2874]!	; 0xb3a
 144:	13490c27 	movtne	r0, #39975	; 0x9c27
 148:	01120111 	tsteq	r2, r1, lsl r1
 14c:	13010640 	movwne	r0, #5696	; 0x1640
 150:	05150000 	ldreq	r0, [r5]
 154:	3a080300 	bcc	200d5c <_start-0x3fe072a4>
 158:	49053b0b 	stmdbmi	r5, {r0, r1, r3, r8, r9, fp, ip, sp}
 15c:	000a0213 	andeq	r0, sl, r3, lsl r2
 160:	00181600 	andseq	r1, r8, r0, lsl #12
 164:	34170000 	ldrcc	r0, [r7]
 168:	3a0e0300 	bcc	380d70 <_start-0x3fc87290>
 16c:	49053b0b 	stmdbmi	r5, {r0, r1, r3, r8, r9, fp, ip, sp}
 170:	000a0213 	andeq	r0, sl, r3, lsl r2
 174:	012e1800 	teqeq	lr, r0, lsl #16
 178:	0e030c3f 	mcreq	12, 0, r0, cr3, cr15, {1}
 17c:	053b0b3a 	ldreq	r0, [fp, #-2874]!	; 0xb3a
 180:	01110c27 	tsteq	r1, r7, lsr #24
 184:	06400112 			; <UNDEFINED> instruction: 0x06400112
 188:	00001301 	andeq	r1, r0, r1, lsl #6
 18c:	03003419 	movweq	r3, #1049	; 0x419
 190:	3b0b3a0e 	blcc	2ce9d0 <_start-0x3fd39630>
 194:	3f13490b 	svccc	0x0013490b
 198:	000c3c0c 	andeq	r3, ip, ip, lsl #24
 19c:	00341a00 	eorseq	r1, r4, r0, lsl #20
 1a0:	0b3a0e03 	bleq	e839b4 <_start-0x3f18464c>
 1a4:	13490b3b 	movtne	r0, #39739	; 0x9b3b
 1a8:	0a020c3f 	beq	832ac <_start-0x3ff84d54>
 1ac:	01000000 	mrseq	r0, (UNDEF: 0)
 1b0:	0e250111 	mcreq	1, 1, r0, cr5, cr1, {0}
 1b4:	0e030b13 	vmoveq.32	d3[0], r0
 1b8:	01110e1b 	tsteq	r1, fp, lsl lr
 1bc:	06100112 			; <UNDEFINED> instruction: 0x06100112
 1c0:	24020000 	strcs	r0, [r2]
 1c4:	3e0b0b00 	vmlacc.f64	d0, d11, d0
 1c8:	000e030b 	andeq	r0, lr, fp, lsl #6
 1cc:	01130300 	tsteq	r3, r0, lsl #6
 1d0:	0b3a0b0b 	bleq	e82e04 <_start-0x3f1851fc>
 1d4:	1301053b 	movwne	r0, #5435	; 0x153b
 1d8:	0d040000 	stceq	0, cr0, [r4]
 1dc:	3a080300 	bcc	200de4 <_start-0x3fe0721c>
 1e0:	49053b0b 	stmdbmi	r5, {r0, r1, r3, r8, r9, fp, ip, sp}
 1e4:	000a3813 	andeq	r3, sl, r3, lsl r8
 1e8:	000d0500 	andeq	r0, sp, r0, lsl #10
 1ec:	0b3a0e03 	bleq	e83a00 <_start-0x3f184600>
 1f0:	1349053b 	movtne	r0, #38203	; 0x953b
 1f4:	00000a38 	andeq	r0, r0, r8, lsr sl
 1f8:	03001606 	movweq	r1, #1542	; 0x606
 1fc:	3b0b3a0e 	blcc	2cea3c <_start-0x3fd395c4>
 200:	00134905 	andseq	r4, r3, r5, lsl #18
 204:	002e0700 	eoreq	r0, lr, r0, lsl #14
 208:	0e030c3f 	mcreq	12, 0, r0, cr3, cr15, {1}
 20c:	0b3b0b3a 	bleq	ec2efc <_start-0x3f145104>
 210:	01120111 	tsteq	r2, r1, lsl r1
 214:	00000640 	andeq	r0, r0, r0, asr #12
 218:	3f012e08 	svccc	0x00012e08
 21c:	3a0e030c 	bcc	380e54 <_start-0x3fc871ac>
 220:	270b3b0b 	strcs	r3, [fp, -fp, lsl #22]
 224:	1201110c 	andne	r1, r1, #3
 228:	01064001 	tsteq	r6, r1
 22c:	09000013 	stmdbeq	r0, {r0, r1, r4}
 230:	0e030005 	cdpeq	0, 0, cr0, cr3, cr5, {0}
 234:	0b3b0b3a 	bleq	ec2f24 <_start-0x3f1450dc>
 238:	0a021349 	beq	84f64 <_start-0x3ff8309c>
 23c:	260a0000 	strcs	r0, [sl], -r0
 240:	00134900 	andseq	r4, r3, r0, lsl #18
 244:	000f0b00 	andeq	r0, pc, r0, lsl #22
 248:	13490b0b 	movtne	r0, #39691	; 0x9b0b
 24c:	01000000 	mrseq	r0, (UNDEF: 0)
 250:	0e250111 	mcreq	1, 1, r0, cr5, cr1, {0}
 254:	0e030b13 	vmoveq.32	d3[0], r0
 258:	01110e1b 	tsteq	r1, fp, lsl lr
 25c:	06100112 			; <UNDEFINED> instruction: 0x06100112
 260:	24020000 	strcs	r0, [r2]
 264:	3e0b0b00 	vmlacc.f64	d0, d11, d0
 268:	000e030b 	andeq	r0, lr, fp, lsl #6
 26c:	01130300 	tsteq	r3, r0, lsl #6
 270:	0b3a0b0b 	bleq	e82ea4 <_start-0x3f18515c>
 274:	1301053b 	movwne	r0, #5435	; 0x153b
 278:	0d040000 	stceq	0, cr0, [r4]
 27c:	3a080300 	bcc	200e84 <_start-0x3fe0717c>
 280:	49053b0b 	stmdbmi	r5, {r0, r1, r3, r8, r9, fp, ip, sp}
 284:	000a3813 	andeq	r3, sl, r3, lsl r8
 288:	00160500 	andseq	r0, r6, r0, lsl #10
 28c:	0b3a0e03 	bleq	e83aa0 <_start-0x3f184560>
 290:	1349053b 	movtne	r0, #38203	; 0x953b
 294:	0d060000 	stceq	0, cr0, [r6]
 298:	3a0e0300 	bcc	380ea0 <_start-0x3fc87160>
 29c:	49053b0b 	stmdbmi	r5, {r0, r1, r3, r8, r9, fp, ip, sp}
 2a0:	000a3813 	andeq	r3, sl, r3, lsl r8
 2a4:	00160700 	andseq	r0, r6, r0, lsl #14
 2a8:	0b3a0803 	bleq	e822bc <_start-0x3f185d44>
 2ac:	1349053b 	movtne	r0, #38203	; 0x953b
 2b0:	2e080000 	cdpcs	0, 0, cr0, cr8, cr0, {0}
 2b4:	030c3f00 	movweq	r3, #52992	; 0xcf00
 2b8:	3b0b3a0e 	blcc	2ceaf8 <_start-0x3fd39508>
 2bc:	1201110b 	andne	r1, r1, #-1073741822	; 0xc0000002
 2c0:	00064001 	andeq	r4, r6, r1
 2c4:	11010000 	mrsne	r0, (UNDEF: 1)
 2c8:	130e2501 	movwne	r2, #58625	; 0xe501
 2cc:	1b0e030b 	blne	380f00 <_start-0x3fc87100>
 2d0:	1201110e 	andne	r1, r1, #-2147483645	; 0x80000003
 2d4:	00061001 	andeq	r1, r6, r1
 2d8:	01130200 	tsteq	r3, r0, lsl #4
 2dc:	0b3a0b0b 	bleq	e82f10 <_start-0x3f1850f0>
 2e0:	1301053b 	movwne	r0, #5435	; 0x153b
 2e4:	0d030000 	stceq	0, cr0, [r3]
 2e8:	3a0e0300 	bcc	380ef0 <_start-0x3fc87110>
 2ec:	49053b0b 	stmdbmi	r5, {r0, r1, r3, r8, r9, fp, ip, sp}
 2f0:	000a3813 	andeq	r3, sl, r3, lsl r8
 2f4:	00240400 	eoreq	r0, r4, r0, lsl #8
 2f8:	0b3e0b0b 	bleq	f82f2c <_start-0x3f0850d4>
 2fc:	00000e03 	andeq	r0, r0, r3, lsl #28
 300:	03001605 	movweq	r1, #1541	; 0x605
 304:	3b0b3a08 	blcc	2ceb2c <_start-0x3fd394d4>
 308:	00134905 	andseq	r4, r3, r5, lsl #18
 30c:	000d0600 	andeq	r0, sp, r0, lsl #12
 310:	0b3a0803 	bleq	e82324 <_start-0x3f185cdc>
 314:	1349053b 	movtne	r0, #38203	; 0x953b
 318:	00000a38 	andeq	r0, r0, r8, lsr sl
 31c:	03001607 	movweq	r1, #1543	; 0x607
 320:	3b0b3a0e 	blcc	2ceb60 <_start-0x3fd394a0>
 324:	00134905 	andseq	r4, r3, r5, lsl #18
 328:	012e0800 	teqeq	lr, r0, lsl #16
 32c:	0e030c3f 	mcreq	12, 0, r0, cr3, cr15, {1}
 330:	0b3b0b3a 	bleq	ec3020 <_start-0x3f144fe0>
 334:	01110c27 	tsteq	r1, r7, lsr #24
 338:	06400112 			; <UNDEFINED> instruction: 0x06400112
 33c:	00001301 	andeq	r1, r0, r1, lsl #6
 340:	03000509 	movweq	r0, #1289	; 0x509
 344:	3b0b3a08 	blcc	2ceb6c <_start-0x3fd39494>
 348:	0213490b 	andseq	r4, r3, #180224	; 0x2c000
 34c:	0a00000a 	beq	37c <_start-0x40007c84>
 350:	08030034 	stmdaeq	r3, {r2, r4, r5}
 354:	0b3b0b3a 	bleq	ec3044 <_start-0x3f144fbc>
 358:	0a021349 	beq	85084 <_start-0x3ff82f7c>
 35c:	240b0000 	strcs	r0, [fp]
 360:	3e0b0b00 	vmlacc.f64	d0, d11, d0
 364:	0008030b 	andeq	r0, r8, fp, lsl #6
 368:	012e0c00 	teqeq	lr, r0, lsl #24
 36c:	0e030c3f 	mcreq	12, 0, r0, cr3, cr15, {1}
 370:	0b3b0b3a 	bleq	ec3060 <_start-0x3f144fa0>
 374:	01120111 	tsteq	r2, r1, lsl r1
 378:	13010640 	movwne	r0, #5696	; 0x1640
 37c:	340d0000 	strcc	r0, [sp]
 380:	3a0e0300 	bcc	380f88 <_start-0x3fc87078>
 384:	490b3b0b 	stmdbmi	fp, {r0, r1, r3, r8, r9, fp, ip, sp}
 388:	000a0213 	andeq	r0, sl, r3, lsl r2
 38c:	012e0e00 	teqeq	lr, r0, lsl #28
 390:	0e030c3f 	mcreq	12, 0, r0, cr3, cr15, {1}
 394:	0b3b0b3a 	bleq	ec3084 <_start-0x3f144f7c>
 398:	0c3c1349 	ldceq	3, cr1, [ip], #-292	; 0xfffffedc
 39c:	00001301 	andeq	r1, r0, r1, lsl #6
 3a0:	0000180f 	andeq	r1, r0, pc, lsl #16
 3a4:	010b1000 	mrseq	r1, (UNDEF: 11)
 3a8:	01120111 	tsteq	r2, r1, lsl r1
 3ac:	2e110000 	cdpcs	0, 1, cr0, cr1, cr0, {0}
 3b0:	030c3f01 	movweq	r3, #52993	; 0xcf01
 3b4:	3b0b3a0e 	blcc	2cebf4 <_start-0x3fd3940c>
 3b8:	3c13490b 	ldccc	9, cr4, [r3], {11}
 3bc:	1200000c 	andne	r0, r0, #12
 3c0:	0c3f012e 	ldfeqs	f0, [pc], #-184	; 310 <_start-0x40007cf0>
 3c4:	0b3a0e03 	bleq	e83bd8 <_start-0x3f184428>
 3c8:	0c270b3b 	stceq	11, cr0, [r7], #-236	; 0xffffff14
 3cc:	01111349 	tsteq	r1, r9, asr #6
 3d0:	06400112 			; <UNDEFINED> instruction: 0x06400112
 3d4:	00001301 	andeq	r1, r0, r1, lsl #6
 3d8:	03003413 	movweq	r3, #1043	; 0x413
 3dc:	3b0b3a0e 	blcc	2cec1c <_start-0x3fd393e4>
 3e0:	3f13490b 	svccc	0x0013490b
 3e4:	000c3c0c 	andeq	r3, ip, ip, lsl #24
 3e8:	11010000 	mrsne	r0, (UNDEF: 1)
 3ec:	130e2501 	movwne	r2, #58625	; 0xe501
 3f0:	1b0e030b 	blne	381024 <_start-0x3fc86fdc>
 3f4:	1201110e 	andne	r1, r1, #-2147483645	; 0x80000003
 3f8:	00061001 	andeq	r1, r6, r1
 3fc:	01130200 	tsteq	r3, r0, lsl #4
 400:	0b3a0b0b 	bleq	e83034 <_start-0x3f184fcc>
 404:	1301053b 	movwne	r0, #5435	; 0x153b
 408:	0d030000 	stceq	0, cr0, [r3]
 40c:	3a0e0300 	bcc	381014 <_start-0x3fc86fec>
 410:	49053b0b 	stmdbmi	r5, {r0, r1, r3, r8, r9, fp, ip, sp}
 414:	000a3813 	andeq	r3, sl, r3, lsl r8
 418:	00240400 	eoreq	r0, r4, r0, lsl #8
 41c:	0b3e0b0b 	bleq	f83050 <_start-0x3f084fb0>
 420:	00000e03 	andeq	r0, r0, r3, lsl #28
 424:	03001605 	movweq	r1, #1541	; 0x605
 428:	3b0b3a08 	blcc	2cec50 <_start-0x3fd393b0>
 42c:	00134905 	andseq	r4, r3, r5, lsl #18
 430:	00160600 	andseq	r0, r6, r0, lsl #12
 434:	0b3a0e03 	bleq	e83c48 <_start-0x3f1843b8>
 438:	1349053b 	movtne	r0, #38203	; 0x953b
 43c:	2e070000 	cdpcs	0, 0, cr0, cr7, cr0, {0}
 440:	030c3f00 	movweq	r3, #52992	; 0xcf00
 444:	3b0b3a0e 	blcc	2cec84 <_start-0x3fd3937c>
 448:	1201110b 	andne	r1, r1, #-1073741822	; 0xc0000002
 44c:	00064001 	andeq	r4, r6, r1
 450:	012e0800 	teqeq	lr, r0, lsl #16
 454:	0e030c3f 	mcreq	12, 0, r0, cr3, cr15, {1}
 458:	0b3b0b3a 	bleq	ec3148 <_start-0x3f144eb8>
 45c:	01110c27 	tsteq	r1, r7, lsr #24
 460:	06400112 			; <UNDEFINED> instruction: 0x06400112
 464:	00001301 	andeq	r1, r0, r1, lsl #6
 468:	03000509 	movweq	r0, #1289	; 0x509
 46c:	3b0b3a08 	blcc	2cec94 <_start-0x3fd3936c>
 470:	0213490b 	andseq	r4, r3, #180224	; 0x2c000
 474:	0a00000a 	beq	4a4 <_start-0x40007b5c>
 478:	0e030005 	cdpeq	0, 0, cr0, cr3, cr5, {0}
 47c:	0b3b0b3a 	bleq	ec316c <_start-0x3f144e94>
 480:	0a021349 	beq	851ac <_start-0x3ff82e54>
 484:	240b0000 	strcs	r0, [fp]
 488:	3e0b0b00 	vmlacc.f64	d0, d11, d0
 48c:	0008030b 	andeq	r0, r8, fp, lsl #6
 490:	00340c00 	eorseq	r0, r4, r0, lsl #24
 494:	0b3a0e03 	bleq	e83ca8 <_start-0x3f184358>
 498:	13490b3b 	movtne	r0, #39739	; 0x9b3b
 49c:	0c3c0c3f 	ldceq	12, cr0, [ip], #-252	; 0xffffff04
 4a0:	340d0000 	strcc	r0, [sp]
 4a4:	3a0e0300 	bcc	3810ac <_start-0x3fc86f54>
 4a8:	490b3b0b 	stmdbmi	fp, {r0, r1, r3, r8, r9, fp, ip, sp}
 4ac:	020c3f13 	andeq	r3, ip, #76	; 0x4c
 4b0:	0000000a 	andeq	r0, r0, sl

Disassembly of section .debug_aranges:

00000000 <.debug_aranges>:
   0:	0000001c 	andeq	r0, r0, ip, lsl r0
   4:	00000002 	andeq	r0, r0, r2
   8:	00040000 	andeq	r0, r4, r0
   c:	00000000 	andeq	r0, r0, r0
  10:	40008000 	andmi	r8, r0, r0
  14:	00000104 	andeq	r0, r0, r4, lsl #2
	...
  20:	0000001c 	andeq	r0, r0, ip, lsl r0
  24:	004a0002 	subeq	r0, sl, r2
  28:	00040000 	andeq	r0, r4, r0
  2c:	00000000 	andeq	r0, r0, r0
  30:	40008110 	andmi	r8, r0, r0, lsl r1
  34:	00000094 	muleq	r0, r4, r0
	...
  40:	0000001c 	andeq	r0, r0, ip, lsl r0
  44:	009c0002 	addseq	r0, ip, r2
  48:	00040000 	andeq	r0, r4, r0
  4c:	00000000 	andeq	r0, r0, r0
  50:	400081a4 	andmi	r8, r0, r4, lsr #3
  54:	000000b0 	strheq	r0, [r0], -r0	; <UNPREDICTABLE>
	...
  60:	0000001c 	andeq	r0, r0, ip, lsl r0
  64:	00ee0002 	rsceq	r0, lr, r2
  68:	00040000 	andeq	r0, r4, r0
  6c:	00000000 	andeq	r0, r0, r0
  70:	40008254 	andmi	r8, r0, r4, asr r2
  74:	000011f4 	strdeq	r1, [r0], -r4
	...
  80:	0000001c 	andeq	r0, r0, ip, lsl r0
  84:	05b00002 	ldreq	r0, [r0, #2]!
  88:	00040000 	andeq	r0, r4, r0
  8c:	00000000 	andeq	r0, r0, r0
  90:	40009448 	andmi	r9, r0, r8, asr #8
  94:	0000010c 	andeq	r0, r0, ip, lsl #2
	...
  a0:	0000001c 	andeq	r0, r0, ip, lsl r0
  a4:	07c10002 	strbeq	r0, [r1, r2]
  a8:	00040000 	andeq	r0, r4, r0
  ac:	00000000 	andeq	r0, r0, r0
  b0:	40009554 	andmi	r9, r0, r4, asr r5
  b4:	000002bc 			; <UNDEFINED> instruction: 0x000002bc
	...
  c0:	0000001c 	andeq	r0, r0, ip, lsl r0
  c4:	0f070002 	svceq	0x00070002
  c8:	00040000 	andeq	r0, r4, r0
  cc:	00000000 	andeq	r0, r0, r0
  d0:	40009810 	andmi	r9, r0, r0, lsl r8
  d4:	000003d0 	ldrdeq	r0, [r0], -r0	; <UNPREDICTABLE>
	...
  e0:	0000001c 	andeq	r0, r0, ip, lsl r0
  e4:	138a0002 	orrne	r0, sl, #2
  e8:	00040000 	andeq	r0, r4, r0
  ec:	00000000 	andeq	r0, r0, r0
  f0:	40009be0 	andmi	r9, r0, r0, ror #23
  f4:	00000194 	muleq	r0, r4, r1
	...

Disassembly of section .debug_loc:

00000000 <.debug_loc>:
   0:	00000000 	andeq	r0, r0, r0
   4:	00000004 	andeq	r0, r0, r4
   8:	007d0002 	rsbseq	r0, sp, r2
   c:	00000004 	andeq	r0, r0, r4
  10:	00000008 	andeq	r0, r0, r8
  14:	047d0002 	ldrbteq	r0, [sp], #-2
  18:	00000008 	andeq	r0, r0, r8
  1c:	00000050 	andeq	r0, r0, r0, asr r0
  20:	047b0002 	ldrbteq	r0, [fp], #-2
	...
  2c:	00000050 	andeq	r0, r0, r0, asr r0
  30:	00000054 	andeq	r0, r0, r4, asr r0
  34:	007d0002 	rsbseq	r0, sp, r2
  38:	00000054 	andeq	r0, r0, r4, asr r0
  3c:	00000058 	andeq	r0, r0, r8, asr r0
  40:	087d0002 	ldmdaeq	sp!, {r1}^
  44:	00000058 	andeq	r0, r0, r8, asr r0
  48:	000001f8 	strdeq	r0, [r0], -r8
  4c:	047b0002 	ldrbteq	r0, [fp], #-2
	...
  58:	000001f8 	strdeq	r0, [r0], -r8
  5c:	000001fc 	strdeq	r0, [r0], -ip
  60:	007d0002 	rsbseq	r0, sp, r2
  64:	000001fc 	strdeq	r0, [r0], -ip
  68:	00000200 	andeq	r0, r0, r0, lsl #4
  6c:	087d0002 	ldmdaeq	sp!, {r1}^
  70:	00000200 	andeq	r0, r0, r0, lsl #4
  74:	00000268 	andeq	r0, r0, r8, ror #4
  78:	047b0002 	ldrbteq	r0, [fp], #-2
	...
  84:	00000268 	andeq	r0, r0, r8, ror #4
  88:	0000026c 	andeq	r0, r0, ip, ror #4
  8c:	007d0002 	rsbseq	r0, sp, r2
  90:	0000026c 	andeq	r0, r0, ip, ror #4
  94:	00000270 	andeq	r0, r0, r0, ror r2
  98:	047d0002 	ldrbteq	r0, [sp], #-2
  9c:	00000270 	andeq	r0, r0, r0, ror r2
  a0:	000002fc 	strdeq	r0, [r0], -ip
  a4:	047b0002 	ldrbteq	r0, [fp], #-2
	...
  b0:	000002fc 	strdeq	r0, [r0], -ip
  b4:	00000300 	andeq	r0, r0, r0, lsl #6
  b8:	007d0002 	rsbseq	r0, sp, r2
  bc:	00000300 	andeq	r0, r0, r0, lsl #6
  c0:	00000304 	andeq	r0, r0, r4, lsl #6
  c4:	087d0002 	ldmdaeq	sp!, {r1}^
  c8:	00000304 	andeq	r0, r0, r4, lsl #6
  cc:	00000794 	muleq	r0, r4, r7
  d0:	047b0002 	ldrbteq	r0, [fp], #-2
	...
  dc:	00000794 	muleq	r0, r4, r7
  e0:	00000798 	muleq	r0, r8, r7
  e4:	007d0002 	rsbseq	r0, sp, r2
  e8:	00000798 	muleq	r0, r8, r7
  ec:	0000079c 	muleq	r0, ip, r7
  f0:	047d0002 	ldrbteq	r0, [sp], #-2
  f4:	0000079c 	muleq	r0, ip, r7
  f8:	00000814 	andeq	r0, r0, r4, lsl r8
  fc:	047b0002 	ldrbteq	r0, [fp], #-2
	...
 108:	00000814 	andeq	r0, r0, r4, lsl r8
 10c:	00000818 	andeq	r0, r0, r8, lsl r8
 110:	007d0002 	rsbseq	r0, sp, r2
 114:	00000818 	andeq	r0, r0, r8, lsl r8
 118:	0000081c 	andeq	r0, r0, ip, lsl r8
 11c:	087d0002 	ldmdaeq	sp!, {r1}^
 120:	0000081c 	andeq	r0, r0, ip, lsl r8
 124:	0000114c 	andeq	r1, r0, ip, asr #2
 128:	047b0002 	ldrbteq	r0, [fp], #-2
	...
 134:	0000114c 	andeq	r1, r0, ip, asr #2
 138:	00001150 	andeq	r1, r0, r0, asr r1
 13c:	007d0002 	rsbseq	r0, sp, r2
 140:	00001150 	andeq	r1, r0, r0, asr r1
 144:	00001154 	andeq	r1, r0, r4, asr r1
 148:	0c7d0002 	ldcleq	0, cr0, [sp], #-8
 14c:	00001154 	andeq	r1, r0, r4, asr r1
 150:	00001158 	andeq	r1, r0, r8, asr r1
 154:	147d0002 	ldrbtne	r0, [sp], #-2
 158:	00001158 	andeq	r1, r0, r8, asr r1
 15c:	0000119c 	muleq	r0, ip, r1
 160:	107b0002 	rsbsne	r0, fp, r2
	...
 16c:	0000119c 	muleq	r0, ip, r1
 170:	000011a0 	andeq	r1, r0, r0, lsr #3
 174:	007d0002 	rsbseq	r0, sp, r2
 178:	000011a0 	andeq	r1, r0, r0, lsr #3
 17c:	000011a4 	andeq	r1, r0, r4, lsr #3
 180:	107d0002 	rsbsne	r0, sp, r2
 184:	000011a4 	andeq	r1, r0, r4, lsr #3
 188:	000011a8 	andeq	r1, r0, r8, lsr #3
 18c:	187d0002 	ldmdane	sp!, {r1}^
 190:	000011a8 	andeq	r1, r0, r8, lsr #3
 194:	000011f4 	strdeq	r1, [r0], -r4
 198:	147b0002 	ldrbtne	r0, [fp], #-2
	...
 1a8:	00000004 	andeq	r0, r0, r4
 1ac:	007d0002 	rsbseq	r0, sp, r2
 1b0:	00000004 	andeq	r0, r0, r4
 1b4:	00000008 	andeq	r0, r0, r8
 1b8:	047d0002 	ldrbteq	r0, [sp], #-2
 1bc:	00000008 	andeq	r0, r0, r8
 1c0:	00000064 	andeq	r0, r0, r4, rrx
 1c4:	047b0002 	ldrbteq	r0, [fp], #-2
	...
 1d0:	00000064 	andeq	r0, r0, r4, rrx
 1d4:	00000068 	andeq	r0, r0, r8, rrx
 1d8:	007d0002 	rsbseq	r0, sp, r2
 1dc:	00000068 	andeq	r0, r0, r8, rrx
 1e0:	0000006c 	andeq	r0, r0, ip, rrx
 1e4:	087d0002 	ldmdaeq	sp!, {r1}^
 1e8:	0000006c 	andeq	r0, r0, ip, rrx
 1ec:	000000c0 	andeq	r0, r0, r0, asr #1
 1f0:	047b0002 	ldrbteq	r0, [fp], #-2
	...
 1fc:	000000c0 	andeq	r0, r0, r0, asr #1
 200:	000000c4 	andeq	r0, r0, r4, asr #1
 204:	007d0002 	rsbseq	r0, sp, r2
 208:	000000c4 	andeq	r0, r0, r4, asr #1
 20c:	000000c8 	andeq	r0, r0, r8, asr #1
 210:	087d0002 	ldmdaeq	sp!, {r1}^
 214:	000000c8 	andeq	r0, r0, r8, asr #1
 218:	0000010c 	andeq	r0, r0, ip, lsl #2
 21c:	047b0002 	ldrbteq	r0, [fp], #-2
	...
 22c:	00000004 	andeq	r0, r0, r4
 230:	007d0002 	rsbseq	r0, sp, r2
 234:	00000004 	andeq	r0, r0, r4
 238:	00000008 	andeq	r0, r0, r8
 23c:	047d0002 	ldrbteq	r0, [sp], #-2
 240:	00000008 	andeq	r0, r0, r8
 244:	000002bc 			; <UNDEFINED> instruction: 0x000002bc
 248:	047b0002 	ldrbteq	r0, [fp], #-2
	...
 258:	00000004 	andeq	r0, r0, r4
 25c:	007d0002 	rsbseq	r0, sp, r2
 260:	00000004 	andeq	r0, r0, r4
 264:	00000008 	andeq	r0, r0, r8
 268:	047d0002 	ldrbteq	r0, [sp], #-2
 26c:	00000008 	andeq	r0, r0, r8
 270:	00000098 	muleq	r0, r8, r0
 274:	047b0002 	ldrbteq	r0, [fp], #-2
	...
 280:	00000098 	muleq	r0, r8, r0
 284:	0000009c 	muleq	r0, ip, r0
 288:	007d0002 	rsbseq	r0, sp, r2
 28c:	0000009c 	muleq	r0, ip, r0
 290:	000000a0 	andeq	r0, r0, r0, lsr #1
 294:	087d0002 	ldmdaeq	sp!, {r1}^
 298:	000000a0 	andeq	r0, r0, r0, lsr #1
 29c:	00000290 	muleq	r0, r0, r2
 2a0:	047b0002 	ldrbteq	r0, [fp], #-2
	...
 2ac:	00000290 	muleq	r0, r0, r2
 2b0:	00000294 	muleq	r0, r4, r2
 2b4:	007d0002 	rsbseq	r0, sp, r2
 2b8:	00000294 	muleq	r0, r4, r2
 2bc:	00000298 	muleq	r0, r8, r2
 2c0:	087d0002 	ldmdaeq	sp!, {r1}^
 2c4:	00000298 	muleq	r0, r8, r2
 2c8:	000003d0 	ldrdeq	r0, [r0], -r0	; <UNPREDICTABLE>
 2cc:	047b0002 	ldrbteq	r0, [fp], #-2
	...
 2dc:	00000004 	andeq	r0, r0, r4
 2e0:	007d0002 	rsbseq	r0, sp, r2
 2e4:	00000004 	andeq	r0, r0, r4
 2e8:	00000008 	andeq	r0, r0, r8
 2ec:	047d0002 	ldrbteq	r0, [sp], #-2
 2f0:	00000008 	andeq	r0, r0, r8
 2f4:	000000f4 	strdeq	r0, [r0], -r4
 2f8:	047b0002 	ldrbteq	r0, [fp], #-2
	...
 304:	000000f4 	strdeq	r0, [r0], -r4
 308:	000000f8 	strdeq	r0, [r0], -r8
 30c:	007d0002 	rsbseq	r0, sp, r2
 310:	000000f8 	strdeq	r0, [r0], -r8
 314:	000000fc 	strdeq	r0, [r0], -ip
 318:	047d0002 	ldrbteq	r0, [sp], #-2
 31c:	000000fc 	strdeq	r0, [r0], -ip
 320:	00000194 	muleq	r0, r4, r1
 324:	047b0002 	ldrbteq	r0, [fp], #-2
	...

Disassembly of section .debug_str:

00000000 <.debug_str>:
   0:	75625f5f 	strbvc	r5, [r2, #-3935]!	; 0xf5f
   4:	69746c69 	ldmdbvs	r4!, {r0, r3, r5, r6, sl, fp, sp, lr}^
   8:	61765f6e 	cmnvs	r6, lr, ror #30
   c:	73696c5f 	cmnvc	r9, #24320	; 0x5f00
  10:	69730074 	ldmdbvs	r3!, {r2, r4, r5, r6}^
  14:	656c706d 	strbvs	r7, [ip, #-109]!	; 0x6d
  18:	7274735f 	rsbsvc	r7, r4, #2080374785	; 0x7c000001
  1c:	6c756f74 	ldclvs	15, cr6, [r5], #-464	; 0xfffffe30
  20:	6c617600 	stclvs	6, cr7, [r1]
  24:	63006575 	movwvs	r6, #1397	; 0x575
  28:	746e756f 	strbtvc	r7, [lr], #-1391	; 0x56f
  2c:	696b7300 	stmdbvs	fp!, {r8, r9, ip, sp, lr}^
  30:	74615f70 	strbtvc	r5, [r1], #-3952	; 0xf70
  34:	5f00696f 	svcpl	0x0000696f
  38:	756f745f 	strbvc	r7, [pc, #-1119]!	; fffffbe1 <key_number+0xbfff54ad>
  3c:	72657070 	rsbvc	r7, r5, #112	; 0x70
  40:	675f5f00 	ldrbvs	r5, [pc, -r0, lsl #30]
  44:	5f63756e 	svcpl	0x0063756e
  48:	6c5f6176 	ldfvse	f6, [pc], {118}	; 0x76
  4c:	00747369 	rsbseq	r7, r4, r9, ror #6
  50:	63657270 	cmnvs	r5, #7
  54:	6f697369 	svcvs	0x00697369
  58:	6e75006e 	cdpvs	0, 7, cr0, cr5, cr14, {3}
  5c:	6e676973 	mcrvs	9, 3, r6, cr7, cr3, {3}
  60:	63206465 	teqvs	r0, #1694498816	; 0x65000000
  64:	00726168 	rsbseq	r6, r2, r8, ror #2
  68:	65736162 	ldrbvs	r6, [r3, #-354]!	; 0x162
  6c:	554e4700 	strbpl	r4, [lr, #-1792]	; 0x700
  70:	34204320 	strtcc	r4, [r0], #-800	; 0x320
  74:	322e362e 	eorcc	r3, lr, #48234496	; 0x2e00000
  78:	6e6f6c00 	cdpvs	12, 6, cr6, cr15, cr0, {0}
  7c:	6e752067 	cdpvs	0, 7, cr2, cr5, cr7, {3}
  80:	6e676973 	mcrvs	9, 3, r6, cr7, cr3, {3}
  84:	69206465 	stmdbvs	r0!, {r0, r2, r5, r6, sl, sp, lr}
  88:	7300746e 	movwvc	r7, #1134	; 0x46e
  8c:	6c706d69 	ldclvs	13, cr6, [r0], #-420	; 0xfffffe5c
  90:	74735f65 	ldrbtvc	r5, [r3], #-3941	; 0xf65
  94:	6c6f7472 	cfstrdvs	mvd7, [pc], #-456	; fffffed4 <key_number+0xbfff57a0>
  98:	6d6f6300 	stclvs	3, cr6, [pc]	; a0 <_start-0x40007f60>
  9c:	2f6e6f6d 	svccs	0x006e6f6d
  a0:	2f637273 	svccs	0x00637273
  a4:	6e697270 	mcrvs	2, 3, r7, cr9, cr0, {3}
  a8:	632e6674 	teqvs	lr, #121634816	; 0x7400000
  ac:	5c3a4400 	cfldrspl	mvf4, [sl]
  b0:	504d4554 	subpl	r4, sp, r4, asr r5
  b4:	3038315c 	eorscc	r3, r8, ip, asr r1
  b8:	72613133 	rsbvc	r3, r1, #-1073741812	; 0xc000000c
  bc:	45425c6d 	strbmi	r5, [r2, #-3181]	; 0xc6d
  c0:	66005045 	strvs	r5, [r0], -r5, asr #32
  c4:	7367616c 	cmnvc	r7, #27
  c8:	61757100 	cmnvs	r5, r0, lsl #2
  cc:	6966696c 	stmdbvs	r6!, {r2, r3, r5, r6, r8, fp, sp, lr}^
  d0:	72007265 	andvc	r7, r0, #1342177286	; 0x50000006
  d4:	6c757365 	ldclvs	3, cr7, [r5], #-404	; 0xfffffe6c
  d8:	65720074 	ldrbvs	r0, [r2, #-116]!	; 0x74
  dc:	74616570 	strbtvc	r6, [r1], #-1392	; 0x570
  e0:	72747300 	rsbsvc	r7, r4, #0
  e4:	6e656c6e 	cdpvs	12, 6, cr6, cr5, cr14, {3}
  e8:	646e6500 	strbtvs	r6, [lr], #-1280	; 0x500
  ec:	635f0070 	cmpvs	pc, #112	; 0x70
  f0:	65707974 	ldrbvs	r7, [r0, #-2420]!	; 0x974
  f4:	67696400 	strbvs	r6, [r9, -r0, lsl #8]!
  f8:	00737469 	rsbseq	r7, r3, r9, ror #8
  fc:	6e697270 	mcrvs	2, 3, r7, cr9, cr0, {3}
 100:	66756274 			; <UNDEFINED> instruction: 0x66756274
 104:	00726566 	rsbseq	r6, r2, r6, ror #10
 108:	6c656966 	stclvs	9, cr6, [r5], #-408	; 0xfffffe68
 10c:	69775f64 	ldmdbvs	r7!, {r2, r5, r6, r8, r9, sl, fp, ip, lr}^
 110:	00687464 	rsbeq	r7, r8, r4, ror #8
 114:	73677261 	cmnvc	r7, #268435462	; 0x10000006
 118:	6e6f6c00 	cdpvs	12, 6, cr6, cr15, cr0, {0}
 11c:	6e692067 	cdpvs	0, 6, cr2, cr9, cr7, {3}
 120:	69730074 	ldmdbvs	r3!, {r2, r4, r5, r6}^
 124:	5f006e67 	svcpl	0x00006e67
 128:	7365725f 	cmnvc	r5, #-268435451	; 0xf0000005
 12c:	7a697300 	bvc	1a5cd34 <_start-0x3e5ab2cc>
 130:	73760065 	cmnvc	r6, #101	; 0x65
 134:	6e697270 	mcrvs	2, 3, r7, cr9, cr0, {3}
 138:	75006674 	strvc	r6, [r0, #-1652]	; 0x674
 13c:	32747261 	rsbscc	r7, r4, #268435462	; 0x10000006
 140:	4e495500 	cdpmi	5, 4, cr5, cr9, cr0, {0}
 144:	00325054 	eorseq	r5, r2, r4, asr r0
 148:	544e4955 	strbpl	r4, [lr], #-2389	; 0x955
 14c:	00325053 	eorseq	r5, r2, r3, asr r0
 150:	44524255 	ldrbmi	r4, [r2], #-597	; 0x255
 154:	00325649 	eorseq	r5, r2, r9, asr #12
 158:	72747370 	rsbsvc	r7, r4, #-1073741823	; 0xc0000001
 15c:	53465500 	movtpl	r5, #25856	; 0x6500
 160:	32544154 	subscc	r4, r4, #21
 164:	52545500 	subspl	r5, r4, #0
 168:	54415453 	strbpl	r5, [r1], #-1107	; 0x453
 16c:	61750032 	cmnvs	r5, r2, lsr r0
 170:	695f7472 	ldmdbvs	pc, {r1, r4, r5, r6, sl, ip, sp, lr}^	; <UNPREDICTABLE>
 174:	0074696e 	rsbseq	r6, r4, lr, ror #18
 178:	61746164 	cmnvs	r4, r4, ror #2
 17c:	43465500 	movtmi	r5, #25856	; 0x6500
 180:	00324e4f 	eorseq	r4, r2, pc, asr #28
 184:	48585455 	ldmdami	r8, {r0, r2, r4, r6, sl, ip, lr}^
 188:	4f430032 	svcmi	0x00430032
 18c:	4e44504e 	cdpmi	0, 4, cr5, cr4, cr14, {2}
 190:	4f435500 	svcmi	0x00435500
 194:	5500324e 	strpl	r3, [r0, #-590]	; 0x24e
 198:	4154534d 	cmpmi	r4, sp, asr #6
 19c:	55003254 	strpl	r3, [r0, #-596]	; 0x254
 1a0:	4d544e49 	ldclmi	14, cr4, [r4, #-292]	; 0xfffffedc
 1a4:	4c550032 	mrrcmi	0, 3, r0, r5, cr2
 1a8:	324e4f43 	subcc	r4, lr, #268	; 0x10c
 1ac:	61706700 	cmnvs	r0, r0, lsl #14
 1b0:	75700031 	ldrbvc	r0, [r0, #-49]!	; 0x31
 1b4:	55006374 	strpl	r6, [r0, #-884]	; 0x374
 1b8:	54535245 	ldrbpl	r5, [r3], #-581	; 0x245
 1bc:	00325441 	eorseq	r5, r2, r1, asr #8
 1c0:	50445550 	subpl	r5, r4, r0, asr r5
 1c4:	63004e44 	movwvs	r4, #3652	; 0xe44
 1c8:	6f6d6d6f 	svcvs	0x006d6d6f
 1cc:	72732f6e 	rsbsvc	r2, r3, #440	; 0x1b8
 1d0:	61752f63 	cmnvs	r5, r3, ror #30
 1d4:	632e7472 	teqvs	lr, #1912602624	; 0x72000000
 1d8:	74757000 	ldrbtvc	r7, [r5]
 1dc:	4d550073 	ldclmi	0, cr0, [r5, #-460]	; 0xfffffe34
 1e0:	324e4f43 	subcc	r4, lr, #268	; 0x10c
 1e4:	58525500 	ldmdapl	r2, {r8, sl, ip, lr}^
 1e8:	55003248 	strpl	r3, [r0, #-584]	; 0x248
 1ec:	43415246 	movtmi	r5, #4678	; 0x1246
 1f0:	324c4156 	subcc	r4, ip, #-2147483627	; 0x80000015
 1f4:	44434900 	strbmi	r4, [r3], #-2304	; 0x900
 1f8:	32525049 	subscc	r5, r2, #73	; 0x49
 1fc:	43490030 	movtmi	r0, #36912	; 0x9030
 200:	52504944 	subspl	r4, r0, #1114112	; 0x110000
 204:	49003132 	stmdbmi	r0, {r1, r4, r5, r8, ip, sp}
 208:	50494443 	subpl	r4, r9, r3, asr #8
 20c:	00323252 	eorseq	r3, r2, r2, asr r2
 210:	49444349 	stmdbmi	r4, {r0, r3, r6, r8, r9, lr}^
 214:	33325250 	teqcc	r2, #5
 218:	44434900 	strbmi	r4, [r3], #-2304	; 0x900
 21c:	52545049 	subspl	r5, r4, #73	; 0x49
 220:	69003833 	stmdbvs	r0, {r0, r1, r4, r5, fp, ip, sp}
 224:	00727470 	rsbseq	r7, r2, r0, ror r4
 228:	49444349 	stmdbmi	r4, {r0, r3, r6, r8, r9, lr}^
 22c:	35315250 	ldrcc	r5, [r1, #-592]!	; 0x250
 230:	44434900 	strbmi	r4, [r3], #-2304	; 0x900
 234:	32525049 	subscc	r5, r2, #73	; 0x49
 238:	43490037 	movtmi	r0, #36919	; 0x9037
 23c:	52504944 	subspl	r4, r0, #1114112	; 0x110000
 240:	49003832 	stmdbmi	r0, {r1, r4, r5, fp, ip, sp}
 244:	50494443 	subpl	r4, r9, r3, asr #8
 248:	00393252 	eorseq	r3, r9, r2, asr r2
 24c:	49444349 	stmdbmi	r4, {r0, r3, r6, r8, r9, lr}^
 250:	34325250 	ldrtcc	r5, [r2], #-592	; 0x250
 254:	44434900 	strbmi	r4, [r3], #-2304	; 0x900
 258:	32525049 	subscc	r5, r2, #73	; 0x49
 25c:	43490035 	movtmi	r0, #36917	; 0x9035
 260:	52504944 	subspl	r4, r0, #1114112	; 0x110000
 264:	49003632 	stmdbmi	r0, {r1, r4, r5, r9, sl, ip, sp}
 268:	50494443 	subpl	r4, r9, r3, asr #8
 26c:	00313352 	eorseq	r3, r1, r2, asr r3
 270:	52434349 	subpl	r4, r3, #603979777	; 0x24000001
 274:	49005250 	stmdbmi	r0, {r4, r6, r9, ip, lr}
 278:	50494443 	subpl	r4, r9, r3, asr #8
 27c:	435f3452 	cmpmi	pc, #1375731712	; 0x52000000
 280:	00305550 	eorseq	r5, r0, r0, asr r5
 284:	49444349 	stmdbmi	r4, {r0, r3, r6, r8, r9, lr}^
 288:	5f325250 	svcpl	0x00325250
 28c:	30555043 	subscc	r5, r5, r3, asr #32
 290:	43434900 	movtmi	r4, #14592	; 0x3900
 294:	52494f45 	subpl	r4, r9, #276	; 0x114
 298:	43434900 	movtmi	r4, #14592	; 0x3900
 29c:	00525042 	subseq	r5, r2, r2, asr #32
 2a0:	49444349 	stmdbmi	r4, {r0, r3, r6, r8, r9, lr}^
 2a4:	31525450 	cmpcc	r2, r0, asr r4
 2a8:	43490030 	movtmi	r0, #36912	; 0x9030
 2ac:	54504944 	ldrbpl	r4, [r0], #-2372	; 0x944
 2b0:	00313152 	eorseq	r3, r1, r2, asr r1
 2b4:	49444349 	stmdbmi	r4, {r0, r3, r6, r8, r9, lr}^
 2b8:	31525450 	cmpcc	r2, r0, asr r4
 2bc:	43490032 	movtmi	r0, #36914	; 0x9032
 2c0:	54504944 	ldrbpl	r4, [r0], #-2372	; 0x944
 2c4:	00333152 	eorseq	r3, r3, r2, asr r1
 2c8:	49444349 	stmdbmi	r4, {r0, r3, r6, r8, r9, lr}^
 2cc:	31525450 	cmpcc	r2, r0, asr r4
 2d0:	43490034 	movtmi	r0, #36916	; 0x9034
 2d4:	54504944 	ldrbpl	r4, [r0], #-2372	; 0x944
 2d8:	00353152 	eorseq	r3, r5, r2, asr r1
 2dc:	49444349 	stmdbmi	r4, {r0, r3, r6, r8, r9, lr}^
 2e0:	31525450 	cmpcc	r2, r0, asr r4
 2e4:	43490036 	movtmi	r0, #36918	; 0x9036
 2e8:	54504944 	ldrbpl	r4, [r0], #-2372	; 0x944
 2ec:	00373152 	eorseq	r3, r7, r2, asr r1
 2f0:	49444349 	stmdbmi	r4, {r0, r3, r6, r8, r9, lr}^
 2f4:	31525450 	cmpcc	r2, r0, asr r4
 2f8:	43490038 	movtmi	r0, #36920	; 0x9038
 2fc:	54504944 	ldrbpl	r4, [r0], #-2372	; 0x944
 300:	00393152 	eorseq	r3, r9, r2, asr r1
 304:	49444349 	stmdbmi	r4, {r0, r3, r6, r8, r9, lr}^
 308:	32335250 	eorscc	r5, r3, #5
 30c:	44434900 	strbmi	r4, [r3], #-2304	; 0x900
 310:	33525049 	cmpcc	r2, #73	; 0x49
 314:	43490033 	movtmi	r0, #36915	; 0x9033
 318:	52504944 	subspl	r4, r0, #1114112	; 0x110000
 31c:	49003433 	stmdbmi	r0, {r0, r1, r4, r5, sl, ip, sp}
 320:	50494443 	subpl	r4, r9, r3, asr #8
 324:	00353352 	eorseq	r3, r5, r2, asr r3
 328:	49444349 	stmdbmi	r4, {r0, r3, r6, r8, r9, lr}^
 32c:	36335250 			; <UNDEFINED> instruction: 0x36335250
 330:	44434900 	strbmi	r4, [r3], #-2304	; 0x900
 334:	33525049 	cmpcc	r2, #73	; 0x49
 338:	43490037 	movtmi	r0, #36919	; 0x9037
 33c:	52504944 	subspl	r4, r0, #1114112	; 0x110000
 340:	49003833 	stmdbmi	r0, {r0, r1, r4, r5, fp, ip, sp}
 344:	50494443 	subpl	r4, r9, r3, asr #8
 348:	5f375254 	svcpl	0x00375254
 34c:	30555043 	subscc	r5, r5, r3, asr #32
 350:	544e4900 	strbpl	r4, [lr], #-2304	; 0x900
 354:	455f4745 	ldrbmi	r4, [pc, #-1861]	; fffffc17 <key_number+0xbfff54e3>
 358:	4349004e 	movtmi	r0, #36942	; 0x904e
 35c:	52504944 	subspl	r4, r0, #1114112	; 0x110000
 360:	50435f37 	subpl	r5, r3, r7, lsr pc
 364:	49003055 	stmdbmi	r0, {r0, r2, r4, r6, ip, sp}
 368:	50494443 	subpl	r4, r9, r3, asr #8
 36c:	5f355254 	svcpl	0x00355254
 370:	30555043 	subscc	r5, r5, r3, asr #32
 374:	44434900 	strbmi	r4, [r3], #-2304	; 0x900
 378:	52545049 	subspl	r5, r4, #73	; 0x49
 37c:	43490038 	movtmi	r0, #36920	; 0x9038
 380:	54504944 	ldrbpl	r4, [r0], #-2372	; 0x944
 384:	49003952 	stmdbmi	r0, {r1, r4, r6, r8, fp, ip, sp}
 388:	53494443 	movtpl	r4, #37955	; 0x9443
 38c:	49003152 	stmdbmi	r0, {r1, r4, r6, r8, ip, sp}
 390:	53494443 	movtpl	r4, #37955	; 0x9443
 394:	49003252 	stmdbmi	r0, {r1, r4, r6, r9, ip, sp}
 398:	41494343 	cmpmi	r9, r3, asr #6
 39c:	43490052 	movtmi	r0, #36946	; 0x9052
 3a0:	52534944 	subspl	r4, r3, #1114112	; 0x110000
 3a4:	656b0034 	strbvs	r0, [fp, #-52]!	; 0x34
 3a8:	00632e79 	rsbeq	r2, r3, r9, ror lr
 3ac:	49444349 	stmdbmi	r4, {r0, r3, r6, r8, r9, lr}^
 3b0:	32525450 	subscc	r5, r2, #1342177280	; 0x50000000
 3b4:	43490030 	movtmi	r0, #36912	; 0x9030
 3b8:	54504944 	ldrbpl	r4, [r0], #-2372	; 0x944
 3bc:	00323252 	eorseq	r3, r2, r2, asr r2
 3c0:	45544e49 	ldrbmi	r4, [r4, #-3657]	; 0xe49
 3c4:	50555252 	subspl	r5, r5, r2, asr r2
 3c8:	554f5f54 	strbpl	r5, [pc, #-3924]	; fffff47c <key_number+0xbfff4d48>
 3cc:	43490054 	movtmi	r0, #36948	; 0x9054
 3d0:	52534944 	subspl	r4, r3, #1114112	; 0x110000
 3d4:	43490033 	movtmi	r0, #36915	; 0x9033
 3d8:	52504944 	subspl	r4, r0, #1114112	; 0x110000
 3dc:	50435f35 	subpl	r5, r3, r5, lsr pc
 3e0:	49003055 	stmdbmi	r0, {r0, r2, r4, r6, ip, sp}
 3e4:	50494443 	subpl	r4, r9, r3, asr #8
 3e8:	31325254 	teqcc	r2, r4, asr r2
 3ec:	43434900 	movtmi	r4, #14592	; 0x3900
 3f0:	52504241 	subspl	r4, r0, #268435460	; 0x10000004
 3f4:	44434900 	strbmi	r4, [r3], #-2304	; 0x900
 3f8:	52545049 	subspl	r5, r4, #73	; 0x49
 3fc:	49003332 	stmdbmi	r0, {r1, r4, r5, r8, r9, ip, sp}
 400:	50494443 	subpl	r4, r9, r3, asr #8
 404:	34325254 	ldrtcc	r5, [r2], #-596	; 0x254
 408:	44434900 	strbmi	r4, [r3], #-2304	; 0x900
 40c:	52545049 	subspl	r5, r4, #73	; 0x49
 410:	49003532 	stmdbmi	r0, {r1, r4, r5, r8, sl, ip, sp}
 414:	50494443 	subpl	r4, r9, r3, asr #8
 418:	36325254 			; <UNDEFINED> instruction: 0x36325254
 41c:	44434900 	strbmi	r4, [r3], #-2304	; 0x900
 420:	52545049 	subspl	r5, r4, #73	; 0x49
 424:	49003732 	stmdbmi	r0, {r1, r4, r5, r8, r9, sl, ip, sp}
 428:	50494443 	subpl	r4, r9, r3, asr #8
 42c:	38325254 	ldmdacc	r2!, {r2, r4, r6, r9, ip, lr}
 430:	44434900 	strbmi	r4, [r3], #-2304	; 0x900
 434:	52545049 	subspl	r5, r4, #73	; 0x49
 438:	49003932 	stmdbmi	r0, {r1, r4, r5, r8, fp, ip, sp}
 43c:	50494443 	subpl	r4, r9, r3, asr #8
 440:	00393152 	eorseq	r3, r9, r2, asr r1
 444:	49444349 	stmdbmi	r4, {r0, r3, r6, r8, r9, lr}^
 448:	30335250 	eorscc	r5, r3, r0, asr r2
 44c:	696e6900 	stmdbvs	lr!, {r8, fp, sp, lr}^
 450:	656b5f74 	strbvs	r5, [fp, #-3956]!	; 0xf74
 454:	43490079 	movtmi	r0, #36985	; 0x9079
 458:	54504944 	ldrbpl	r4, [r0], #-2372	; 0x944
 45c:	435f3252 	cmpmi	pc, #536870917	; 0x20000005
 460:	00305550 	eorseq	r5, r0, r0, asr r5
 464:	31787067 	cmncc	r8, r7, rrx
 468:	78706700 	ldmdavc	r0!, {r8, r9, sl, sp, lr}^
 46c:	43490033 	movtmi	r0, #36915	; 0x9033
 470:	52504944 	subspl	r4, r0, #1114112	; 0x110000
 474:	49003933 	stmdbmi	r0, {r0, r1, r4, r5, r8, fp, ip, sp}
 478:	50494443 	subpl	r4, r9, r3, asr #8
 47c:	435f3652 	cmpmi	pc, #85983232	; 0x5200000
 480:	00305550 	eorseq	r5, r0, r0, asr r5
 484:	49444349 	stmdbmi	r4, {r0, r3, r6, r8, r9, lr}^
 488:	33525450 	cmpcc	r2, #1342177280	; 0x50000000
 48c:	5550435f 	ldrbpl	r4, [r0, #-863]	; 0x35f
 490:	43490030 	movtmi	r0, #36912	; 0x9030
 494:	52504944 	subspl	r4, r0, #1114112	; 0x110000
 498:	50435f33 	subpl	r5, r3, r3, lsr pc
 49c:	49003055 	stmdbmi	r0, {r0, r2, r4, r6, ip, sp}
 4a0:	53494443 	movtpl	r4, #37955	; 0x9443
 4a4:	00345245 	eorseq	r5, r4, r5, asr #4
 4a8:	49444349 	stmdbmi	r4, {r0, r3, r6, r8, r9, lr}^
 4ac:	5f305250 	svcpl	0x00305250
 4b0:	30555043 	subscc	r5, r5, r3, asr #32
 4b4:	44434900 	strbmi	r4, [r3], #-2304	; 0x900
 4b8:	30525349 	subscc	r5, r2, r9, asr #6
 4bc:	5550435f 	ldrbpl	r4, [r0, #-863]	; 0x35f
 4c0:	43490030 	movtmi	r0, #36912	; 0x9030
 4c4:	54504944 	ldrbpl	r4, [r0], #-2372	; 0x944
 4c8:	435f3452 	cmpmi	pc, #1375731712	; 0x52000000
 4cc:	00305550 	eorseq	r5, r0, r0, asr r5
 4d0:	49444349 	stmdbmi	r4, {r0, r3, r6, r8, r9, lr}^
 4d4:	30315250 	eorscc	r5, r1, r0, asr r2
 4d8:	44434900 	strbmi	r4, [r3], #-2304	; 0x900
 4dc:	31525049 	cmpcc	r2, r9, asr #32
 4e0:	43490031 	movtmi	r0, #36913	; 0x9031
 4e4:	52504944 	subspl	r4, r0, #1114112	; 0x110000
 4e8:	49003231 	stmdbmi	r0, {r0, r4, r5, r9, ip, sp}
 4ec:	50494443 	subpl	r4, r9, r3, asr #8
 4f0:	00333152 	eorseq	r3, r3, r2, asr r1
 4f4:	49444349 	stmdbmi	r4, {r0, r3, r6, r8, r9, lr}^
 4f8:	34315250 	ldrtcc	r5, [r1], #-592	; 0x250
 4fc:	75706300 	ldrbvc	r6, [r0, #-768]!	; 0x300
 500:	43490030 	movtmi	r0, #36912	; 0x9030
 504:	52504944 	subspl	r4, r0, #1114112	; 0x110000
 508:	49003631 	stmdbmi	r0, {r0, r4, r5, r9, sl, ip, sp}
 50c:	50494443 	subpl	r4, r9, r3, asr #8
 510:	00373152 	eorseq	r3, r7, r2, asr r1
 514:	49444349 	stmdbmi	r4, {r0, r3, r6, r8, r9, lr}^
 518:	38315250 	ldmdacc	r1!, {r4, r6, r9, ip, lr}
 51c:	44434900 	strbmi	r4, [r3], #-2304	; 0x900
 520:	52545049 	subspl	r5, r4, #73	; 0x49
 524:	49003033 	stmdbmi	r0, {r0, r1, r4, r5, ip, sp}
 528:	4d504343 	ldclmi	3, cr4, [r0, #-268]	; 0xfffffef4
 52c:	43490052 	movtmi	r0, #36946	; 0x9052
 530:	54504944 	ldrbpl	r4, [r0], #-2372	; 0x944
 534:	00323352 	eorseq	r3, r2, r2, asr r3
 538:	49444349 	stmdbmi	r4, {r0, r3, r6, r8, r9, lr}^
 53c:	33525450 	cmpcc	r2, #1342177280	; 0x50000000
 540:	43490033 	movtmi	r0, #36915	; 0x9033
 544:	54504944 	ldrbpl	r4, [r0], #-2372	; 0x944
 548:	00343352 	eorseq	r3, r4, r2, asr r3
 54c:	49444349 	stmdbmi	r4, {r0, r3, r6, r8, r9, lr}^
 550:	33525450 	cmpcc	r2, #1342177280	; 0x50000000
 554:	43490035 	movtmi	r0, #36917	; 0x9035
 558:	54504944 	ldrbpl	r4, [r0], #-2372	; 0x944
 55c:	00363352 	eorseq	r3, r6, r2, asr r3
 560:	49444349 	stmdbmi	r4, {r0, r3, r6, r8, r9, lr}^
 564:	33525450 	cmpcc	r2, #1342177280	; 0x50000000
 568:	43490037 	movtmi	r0, #36919	; 0x9037
 56c:	45534944 	ldrbmi	r4, [r3, #-2372]	; 0x944
 570:	435f3052 	cmpmi	pc, #82	; 0x52
 574:	00305550 	eorseq	r5, r0, r0, asr r5
 578:	49444349 	stmdbmi	r4, {r0, r3, r6, r8, r9, lr}^
 57c:	33525450 	cmpcc	r2, #1342177280	; 0x50000000
 580:	43490039 	movtmi	r0, #36921	; 0x9039
 584:	54504944 	ldrbpl	r4, [r0], #-2372	; 0x944
 588:	435f3652 	cmpmi	pc, #85983232	; 0x5200000
 58c:	00305550 	eorseq	r5, r0, r0, asr r5
 590:	49444349 	stmdbmi	r4, {r0, r3, r6, r8, r9, lr}^
 594:	00385250 	eorseq	r5, r8, r0, asr r2
 598:	49444349 	stmdbmi	r4, {r0, r3, r6, r8, r9, lr}^
 59c:	31524553 	cmpcc	r2, r3, asr r5
 5a0:	44434900 	strbmi	r4, [r3], #-2304	; 0x900
 5a4:	52455349 	subpl	r5, r5, #603979777	; 0x24000001
 5a8:	43490032 	movtmi	r0, #36914	; 0x9032
 5ac:	45534944 	ldrbmi	r4, [r3, #-2372]	; 0x944
 5b0:	49003352 	stmdbmi	r0, {r1, r4, r6, r8, r9, ip, sp}
 5b4:	50484343 	subpl	r4, r8, r3, asr #6
 5b8:	49005249 	stmdbmi	r0, {r0, r3, r6, r9, ip, lr}
 5bc:	50494443 	subpl	r4, r9, r3, asr #8
 5c0:	5f305254 	svcpl	0x00305254
 5c4:	30555043 	subscc	r5, r5, r3, asr #32
 5c8:	44434900 	strbmi	r4, [r3], #-2304	; 0x900
 5cc:	52545049 	subspl	r5, r4, #73	; 0x49
 5d0:	50435f31 	subpl	r5, r3, r1, lsr pc
 5d4:	49003055 	stmdbmi	r0, {r0, r2, r4, r6, ip, sp}
 5d8:	50494443 	subpl	r4, r9, r3, asr #8
 5dc:	49003952 	stmdbmi	r0, {r1, r4, r6, r8, fp, ip, sp}
 5e0:	43494343 	movtmi	r4, #37699	; 0x9343
 5e4:	43490052 	movtmi	r0, #36946	; 0x9052
 5e8:	52504944 	subspl	r4, r0, #1114112	; 0x110000
 5ec:	50435f31 	subpl	r5, r3, r1, lsr pc
 5f0:	69003055 	stmdbvs	r0, {r0, r2, r4, r6, ip, sp}
 5f4:	00726573 	rsbseq	r6, r2, r3, ror r5
 5f8:	49444349 	stmdbmi	r4, {r0, r3, r6, r8, r9, lr}^
 5fc:	33525450 	cmpcc	r2, #1342177280	; 0x50000000
 600:	796d0031 	stmdbvc	sp!, {r0, r4, r5}^
 604:	616c6564 	cmnvs	ip, r4, ror #10
 608:	736d5f79 	cmnvc	sp, #484	; 0x1e4
 60c:	4d435400 	cfstrdmi	mvd5, [r3]
 610:	00304250 	eorseq	r4, r0, r0, asr r2
 614:	504d4354 	subpl	r4, sp, r4, asr r3
 618:	67003342 	strvs	r3, [r0, -r2, asr #6]
 61c:	00306470 	eorseq	r6, r0, r0, ror r4
 620:	5f79656b 	svcpl	0x0079656b
 624:	626d756e 	rsbvs	r7, sp, #461373440	; 0x1b800000
 628:	54007265 	strpl	r7, [r0], #-613	; 0x265
 62c:	4f544e43 	svcmi	0x00544e43
 630:	43540030 	cmpmi	r4, #48	; 0x30
 634:	3142504d 	cmpcc	r2, sp, asr #32
 638:	4d435400 	cfstrdmi	mvd5, [r3]
 63c:	00324250 	eorseq	r4, r2, r0, asr r2
 640:	74696e69 	strbtvc	r6, [r9], #-3689	; 0xe69
 644:	6d69745f 	cfstrdvs	mvd7, [r9, #-380]!	; 0xfffffe84
 648:	64007265 	strvs	r7, [r0], #-613	; 0x265
 64c:	72695f6f 	rsbvc	r5, r9, #444	; 0x1bc
 650:	616d0071 	smcvs	53249	; 0xd001
 654:	54006e69 	strpl	r6, [r0], #-3689	; 0xe69
 658:	42544e43 	subsmi	r4, r4, #1072	; 0x430
 65c:	70670031 	rsbvc	r0, r7, r1, lsr r0
 660:	54003278 	strpl	r3, [r0], #-632	; 0x278
 664:	42544e43 	subsmi	r4, r4, #1072	; 0x430
 668:	43540033 	cmpmi	r4, #51	; 0x33
 66c:	3242544e 	subcc	r5, r2, #1308622848	; 0x4e000000
 670:	71726900 	cmnvc	r2, r0, lsl #18
 674:	6d756e5f 	ldclvs	14, cr6, [r5, #-380]!	; 0xfffffe84
 678:	00726562 	rsbseq	r6, r2, r2, ror #10
 67c:	47464354 	smlsldmi	r4, r6, r4, r3
 680:	43540030 	cmpmi	r4, #48	; 0x30
 684:	00314746 	eorseq	r4, r1, r6, asr #14
 688:	6e69616d 	powvsez	f6, f1, #5.0
 68c:	7300632e 	movwvc	r6, #814	; 0x32e
 690:	74726174 	ldrbtvc	r6, [r2], #-372	; 0x174
 694:	6d69745f 	cfstrdvs	mvd7, [r9, #-380]!	; 0xfffffe84
 698:	00347265 	eorseq	r7, r4, r5, ror #4
 69c:	4e4f4354 	mcrmi	3, 2, r4, cr15, cr4, {2}
 6a0:	4e435400 	cdpmi	4, 4, cr5, cr3, cr0, {0}
 6a4:	00314f54 	eorseq	r4, r1, r4, asr pc
 6a8:	544e4354 	strbpl	r4, [lr], #-852	; 0x354
 6ac:	5400324f 	strpl	r3, [r0], #-591	; 0x24f
 6b0:	4f544e43 	svcmi	0x00544e43
 6b4:	43540033 	cmpmi	r4, #51	; 0x33
 6b8:	344f544e 	strbcc	r5, [pc], #-1102	; 6c0 <_start-0x40007940>
 6bc:	4e495400 	cdpmi	4, 4, cr5, cr9, cr0, {0}
 6c0:	53435f54 	movtpl	r5, #16212	; 0x3f54
 6c4:	00544154 	subseq	r4, r4, r4, asr r1
 6c8:	544e4354 	strbpl	r4, [lr], #-852	; 0x354
 6cc:	54003042 	strpl	r3, [r0], #-66	; 0x42
 6d0:	42544e43 	subsmi	r4, r4, #1072	; 0x430
 6d4:	69740034 	ldmdbvs	r4!, {r2, r4, r5}^
 6d8:	3472656d 	ldrbtcc	r6, [r2], #-1389	; 0x56d
 6dc:	6b00632e 	blvs	1939c <_start-0x3ffeec64>
 6e0:	6e5f7965 	cdpvs	9, 5, cr7, cr15, cr5, {3}
	...

Disassembly of section .debug_frame:

00000000 <.debug_frame>:
   0:	0000000c 	andeq	r0, r0, ip
   4:	ffffffff 			; <UNDEFINED> instruction: 0xffffffff
   8:	7c020001 	stcvc	0, cr0, [r2], {1}
   c:	000d0c0e 	andeq	r0, sp, lr, lsl #24
  10:	00000014 	andeq	r0, r0, r4, lsl r0
  14:	00000000 	andeq	r0, r0, r0
  18:	40008254 	andmi	r8, r0, r4, asr r2
  1c:	00000050 	andeq	r0, r0, r0, asr r0
  20:	8b040e42 	blhi	103930 <_start-0x3ff046d0>
  24:	0b0d4201 	bleq	350830 <_start-0x3fcb77d0>
  28:	00000018 	andeq	r0, r0, r8, lsl r0
  2c:	00000000 	andeq	r0, r0, r0
  30:	400082a4 	andmi	r8, r0, r4, lsr #5
  34:	000001a8 	andeq	r0, r0, r8, lsr #3
  38:	8e080e42 	cdphi	14, 0, cr0, cr8, cr2, {2}
  3c:	42028b01 	andmi	r8, r2, #1024	; 0x400
  40:	00040b0c 	andeq	r0, r4, ip, lsl #22
  44:	00000018 	andeq	r0, r0, r8, lsl r0
  48:	00000000 	andeq	r0, r0, r0
  4c:	4000844c 	andmi	r8, r0, ip, asr #8
  50:	00000070 	andeq	r0, r0, r0, ror r0
  54:	8e080e42 	cdphi	14, 0, cr0, cr8, cr2, {2}
  58:	42028b01 	andmi	r8, r2, #1024	; 0x400
  5c:	00040b0c 	andeq	r0, r4, ip, lsl #22
  60:	00000014 	andeq	r0, r0, r4, lsl r0
  64:	00000000 	andeq	r0, r0, r0
  68:	400084bc 			; <UNDEFINED> instruction: 0x400084bc
  6c:	00000094 	muleq	r0, r4, r0
  70:	8b040e42 	blhi	103980 <_start-0x3ff04680>
  74:	0b0d4201 	bleq	350880 <_start-0x3fcb7780>
  78:	00000018 	andeq	r0, r0, r8, lsl r0
  7c:	00000000 	andeq	r0, r0, r0
  80:	40008550 	andmi	r8, r0, r0, asr r5
  84:	00000498 	muleq	r0, r8, r4
  88:	8e080e42 	cdphi	14, 0, cr0, cr8, cr2, {2}
  8c:	42028b01 	andmi	r8, r2, #1024	; 0x400
  90:	00040b0c 	andeq	r0, r4, ip, lsl #22
  94:	00000014 	andeq	r0, r0, r4, lsl r0
  98:	00000000 	andeq	r0, r0, r0
  9c:	400089e8 	andmi	r8, r0, r8, ror #19
  a0:	00000080 	andeq	r0, r0, r0, lsl #1
  a4:	8b040e42 	blhi	1039b4 <_start-0x3ff0464c>
  a8:	0b0d4201 	bleq	3508b4 <_start-0x3fcb774c>
  ac:	00000018 	andeq	r0, r0, r8, lsl r0
  b0:	00000000 	andeq	r0, r0, r0
  b4:	40008a68 	andmi	r8, r0, r8, ror #20
  b8:	00000938 	andeq	r0, r0, r8, lsr r9
  bc:	8e080e42 	cdphi	14, 0, cr0, cr8, cr2, {2}
  c0:	42028b01 	andmi	r8, r2, #1024	; 0x400
  c4:	00040b0c 	andeq	r0, r4, ip, lsl #22
  c8:	00000020 	andeq	r0, r0, r0, lsr #32
  cc:	00000000 	andeq	r0, r0, r0
  d0:	400093a0 	andmi	r9, r0, r0, lsr #7
  d4:	00000050 	andeq	r0, r0, r0, asr r0
  d8:	830c0e42 	movwhi	r0, #52802	; 0xce42
  dc:	81028201 	tsthi	r2, r1, lsl #4
  e0:	140e4203 	strne	r4, [lr], #-515	; 0x203
  e4:	058b048e 	streq	r0, [fp, #1166]	; 0x48e
  e8:	100b0c42 	andne	r0, fp, r2, asr #24
  ec:	00000024 	andeq	r0, r0, r4, lsr #32
  f0:	00000000 	andeq	r0, r0, r0
  f4:	400093f0 	strdmi	r9, [r0], -r0
  f8:	00000058 	andeq	r0, r0, r8, asr r0
  fc:	83100e42 	tsthi	r0, #1056	; 0x420
 100:	81028201 	tsthi	r2, r1, lsl #4
 104:	42048003 	andmi	r8, r4, #3
 108:	058e180e 	streq	r1, [lr, #2062]	; 0x80e
 10c:	0c42068b 	mcrreq	6, 8, r0, r2, cr11
 110:	0000140b 	andeq	r1, r0, fp, lsl #8
 114:	0000000c 	andeq	r0, r0, ip
 118:	ffffffff 			; <UNDEFINED> instruction: 0xffffffff
 11c:	7c020001 	stcvc	0, cr0, [r2], {1}
 120:	000d0c0e 	andeq	r0, sp, lr, lsl #24
 124:	00000014 	andeq	r0, r0, r4, lsl r0
 128:	00000114 	andeq	r0, r0, r4, lsl r1
 12c:	40009448 	andmi	r9, r0, r8, asr #8
 130:	00000064 	andeq	r0, r0, r4, rrx
 134:	8b040e42 	blhi	103a44 <_start-0x3ff045bc>
 138:	0b0d4201 	bleq	350944 <_start-0x3fcb76bc>
 13c:	00000018 	andeq	r0, r0, r8, lsl r0
 140:	00000114 	andeq	r0, r0, r4, lsl r1
 144:	400094ac 	andmi	r9, r0, ip, lsr #9
 148:	0000005c 	andeq	r0, r0, ip, asr r0
 14c:	8e080e42 	cdphi	14, 0, cr0, cr8, cr2, {2}
 150:	42028b01 	andmi	r8, r2, #1024	; 0x400
 154:	00040b0c 	andeq	r0, r4, ip, lsl #22
 158:	00000018 	andeq	r0, r0, r8, lsl r0
 15c:	00000114 	andeq	r0, r0, r4, lsl r1
 160:	40009508 	andmi	r9, r0, r8, lsl #10
 164:	0000004c 	andeq	r0, r0, ip, asr #32
 168:	8e080e42 	cdphi	14, 0, cr0, cr8, cr2, {2}
 16c:	42028b01 	andmi	r8, r2, #1024	; 0x400
 170:	00040b0c 	andeq	r0, r4, ip, lsl #22
 174:	0000000c 	andeq	r0, r0, ip
 178:	ffffffff 			; <UNDEFINED> instruction: 0xffffffff
 17c:	7c020001 	stcvc	0, cr0, [r2], {1}
 180:	000d0c0e 	andeq	r0, sp, lr, lsl #24
 184:	00000014 	andeq	r0, r0, r4, lsl r0
 188:	00000174 	andeq	r0, r0, r4, ror r1
 18c:	40009554 	andmi	r9, r0, r4, asr r5
 190:	000002bc 			; <UNDEFINED> instruction: 0x000002bc
 194:	8b040e42 	blhi	103aa4 <_start-0x3ff0455c>
 198:	0b0d4201 	bleq	3509a4 <_start-0x3fcb765c>
 19c:	0000000c 	andeq	r0, r0, ip
 1a0:	ffffffff 			; <UNDEFINED> instruction: 0xffffffff
 1a4:	7c020001 	stcvc	0, cr0, [r2], {1}
 1a8:	000d0c0e 	andeq	r0, sp, lr, lsl #24
 1ac:	00000014 	andeq	r0, r0, r4, lsl r0
 1b0:	0000019c 	muleq	r0, ip, r1
 1b4:	40009810 	andmi	r9, r0, r0, lsl r8
 1b8:	00000098 	muleq	r0, r8, r0
 1bc:	8b040e42 	blhi	103acc <_start-0x3ff04534>
 1c0:	0b0d4201 	bleq	3509cc <_start-0x3fcb7634>
 1c4:	00000018 	andeq	r0, r0, r8, lsl r0
 1c8:	0000019c 	muleq	r0, ip, r1
 1cc:	400098a8 	andmi	r9, r0, r8, lsr #17
 1d0:	000001f8 	strdeq	r0, [r0], -r8
 1d4:	8e080e42 	cdphi	14, 0, cr0, cr8, cr2, {2}
 1d8:	42028b01 	andmi	r8, r2, #1024	; 0x400
 1dc:	00040b0c 	andeq	r0, r4, ip, lsl #22
 1e0:	00000018 	andeq	r0, r0, r8, lsl r0
 1e4:	0000019c 	muleq	r0, ip, r1
 1e8:	40009aa0 	andmi	r9, r0, r0, lsr #21
 1ec:	00000140 	andeq	r0, r0, r0, asr #2
 1f0:	8e080e42 	cdphi	14, 0, cr0, cr8, cr2, {2}
 1f4:	42028b01 	andmi	r8, r2, #1024	; 0x400
 1f8:	00040b0c 	andeq	r0, r4, ip, lsl #22
 1fc:	0000000c 	andeq	r0, r0, ip
 200:	ffffffff 			; <UNDEFINED> instruction: 0xffffffff
 204:	7c020001 	stcvc	0, cr0, [r2], {1}
 208:	000d0c0e 	andeq	r0, sp, lr, lsl #24
 20c:	00000014 	andeq	r0, r0, r4, lsl r0
 210:	000001fc 	strdeq	r0, [r0], -ip
 214:	40009be0 	andmi	r9, r0, r0, ror #23
 218:	000000f4 	strdeq	r0, [r0], -r4
 21c:	8b040e42 	blhi	103b2c <_start-0x3ff044d4>
 220:	0b0d4201 	bleq	350a2c <_start-0x3fcb75d4>
 224:	00000014 	andeq	r0, r0, r4, lsl r0
 228:	000001fc 	strdeq	r0, [r0], -ip
 22c:	40009cd4 	ldrdmi	r9, [r0], -r4
 230:	000000a0 	andeq	r0, r0, r0, lsr #1
 234:	8b040e42 	blhi	103b44 <_start-0x3ff044bc>
 238:	0b0d4201 	bleq	350a44 <_start-0x3fcb75bc>
